******************************************************************************
                  TI ARM Linker Unix v16.9.6                   
******************************************************************************
>> Linked Fri Oct  2 10:24:57 2020

OUTPUT FILE NAME:   <xwr68xx_sbl_mss.xer4f>
ENTRY POINT SYMBOL: "_c_int00"  address: 0000f1fc


MEMORY CONFIGURATION

         name            origin    length      used     unused   attr    fill
----------------------  --------  ---------  --------  --------  ----  --------
  VECTORS               00000000   00000100  0000003c  000000c4     X
  PROG_RAM              00000100   0003ff00  0000f4be  00030a42  RW X
  DATA_RAM              08000000   00030000  0001de6a  00012196  RW X


SEGMENT ALLOCATION MAP

run origin  load origin   length   init length attrs members
----------  ----------- ---------- ----------- ----- -------
00000000    00000000    0000003c   0000003c    r--
  00000000    00000000    0000003c   0000003c    r-- .vecs
0000f1a0    0000f1a0    00000428   00000428    r-x
  0000f1a0    0000f1a0    000000e8   000000e8    r-x tcmalibs
  0000f288    0000f288    00000340   00000340    r-- .cinit
08000000    00000100    0000cbb2   0000cbb2    r-x
  08000000    00000100    0000cbb2   0000cbb2    r-x .text
0800cbb8    0800cbb8    00008000   00000000    rw-
  0800cbb8    0800cbb8    00008000   00000000    rw- systemHeap
08014bc0    08014bc0    00004b80   00000000    rw-
  08014bc0    08014bc0    00004b80   00000000    rw- .bss
08019740    0000ccb8    000024e4   000024e4    r--
  08019740    0000ccb8    000024e4   000024e4    r-- .const
0801bc40    0801bc40    00002258   00000000    rw-
  0801bc40    0801bc40    00001000   00000000    rw- .stack
  0801cc40    0801cc40    00000a54   00000000    rw- .data
  0801d698    0801d698    00000800   00000000    rw- .myFiqStack


SECTION ALLOCATION MAP

 output                                  attributes/
section   page    origin      length       input sections
--------  ----  ----------  ----------   ----------------
.vecs      0    00000000    0000003c     
                  00000000    0000003c     sbl_per4ft.oer4ft (.vecs)

.myFiqStack 
*          0    0801d698    00000800     UNINITIALIZED
                  0801d698    00000800     sbl_per4ft.oer4ft (.myFiqStack)

xdc.meta   0    00000000    000000f5     COPY SECTION
                  00000000    000000f5     sbl_per4ft.oer4ft (xdc.meta)

.text      0    00000100    0000cbb2     RUN ADDR = 08000000
                  00000100    0000107a     rtsv7R4_T_le_v3D16_eabi.lib : _printfi.obj (.text)
                  0000117a    00000002     libqspiflash_xwr68xx.aer4f : qspiflash.oer4f (.text:QSPIFlash_init)
                  0000117c    00000547     image_validity.oer4f (.text:SBL_imageAuthentication)
                  000016c3    00000001     --HOLE-- [fill = 0]
                  000016c4    00000544     sbl.oer4f (.text:SBL_initTask)
                  00001c08    00000008     libosal_xwr68xx.aer4f : HwiP_tirtos.oer4f (.text:HwiP_disable)
                  00001c10    000004e1     sysbios.aer4ft : BIOS.obj (.text:xdc_runtime_System_doPrint__I)
                  000020f1    00000001     --HOLE-- [fill = 0]
                  000020f2    00000002     libqspi_xwr68xx.aer4f : qspi.oer4f (.text:QSPI_init)
                  000020f4    000003fc     image_parser.oer4f (.text:SBL_imageParser)
                  000024f0    000003c4     metaheader_parser.oer4f (.text:SBL_metaHeaderParser)
                  000028b4    00000380     transport.oer4f (.text:SBL_transportDownloadFile)
                  00002c34    00000314     libsoc_xwr68xx.aer4f : soc_xwr68xx_mss.oer4f (.text:SOC_deviceInit)
                  00002f48    00000008     libosal_xwr68xx.aer4f : SemaphoreP_tirtos.oer4f (.text:SemaphoreP_Params_init)
                  00002f50    000002e4     sysbios.aer4ft : BIOS.obj (.text:ti_sysbios_knl_Semaphore_pend__E)
                  00003234    000002cc     sbl.oer4f (.text:SBL_imageLoader)
                  00003500    000002b8     rtsv7R4_T_le_v3D16_eabi.lib : ull_div32.obj (.text)
                  000037b8    000002b0     libdma_xwr68xx.aer4f : dma.oer4f (.text:DMA_open)
                  00003a68    00000006     libosal_xwr68xx.aer4f : HwiP_tirtos.oer4f (.text:HwiP_restore)
                  00003a6e    00000002     libuart_xwr68xx.aer4f : uartsci.oer4f (.text:UartSci_init)
                  00003a70    000002a4     sysbios.aer4ft : BIOS.obj (.text:ti_sysbios_heaps_HeapMem_freeUnprotected__E)
                  00003d14    0000000c     transport.oer4f (.text:SBL_transportDeinit)
                  00003d20    00000280     sysbios.aer4ft : BIOS.obj (.text:ti_sysbios_family_arm_exc_Exception_excDumpContext__I)
                  00003fa0    0000026c     libqspiflash_xwr68xx.aer4f : qspiflash.oer4f (.text:QSPIFlash_open)
                  0000420c    00000004     libosal_xwr68xx.aer4f : HwiP_tirtos.oer4f (.text:HwiP_disableInterrupt)
                  00004210    0000022c     sysbios.aer4ft : BIOS.obj (.text:ti_sysbios_knl_Task_Instance_finalize__E)
                  0000443c    00000004     sbl_per4ft.oer4ft (.text:ti_sysbios_BIOS_RtsGateProxy_enter__E)
                  00004440    00000228     sysbios.aer4ft : BIOS.obj (.text:ti_sysbios_heaps_HeapMem_allocUnprotected__E)
                  00004668    00000214     libuart_xwr68xx.aer4f : uartsci.oer4f (.text:UartSci_open)
                  0000487c    00000200     libcrc_xwr68xx.aer4f : crc.oer4f (.text:CRC_open)
                  00004a7c    000001f0     libdma_xwr68xx.aer4f : dma.oer4f (.text:DMA_setChannelParams)
                  00004c6c    00000004     sbl_per4ft.oer4ft (.text:ti_sysbios_BIOS_RtsGateProxy_leave__E)
                  00004c70    000001d8     sysbios.aer4ft : BIOS.obj (.text:ti_sysbios_knl_Task_Module_startup__E)
                  00004e48    000001d4     multicoreimage_parser.oer4f (.text:SBL_multicoreImageParser)
                  0000501c    000001c8     rtsv7R4_T_le_v3D16_eabi.lib : fopen.obj (.text)
                  000051e4    0000000c     libuart_xwr68xx.aer4f : UART.oer4f (.text:UART_Params_init)
                  000051f0    000001c8     sysbios.aer4ft : BIOS.obj (.text:ti_sysbios_knl_Task_Instance_init__E)
                  000053b8    00000004     sbl_per4ft.oer4ft (.text:ti_sysbios_family_arm_TaskSupport_Module__startupDone__S)
                  000053bc    00000004     sbl_per4ft.oer4ft (.text:ti_sysbios_family_arm_v7r_vim_Hwi_delete)
                  000053c0    0000017c     sysbios.aer4ft : BIOS.obj (.text:ti_sysbios_family_arm_exc_Exception_excHandler__I)
                  0000553c    00000160     libqspi_xwr68xx.aer4f : qspi.oer4f (.text:QSPI_open)
                  0000569c    00000004     sbl_per4ft.oer4ft (.text:ti_sysbios_heaps_HeapMem_Module_GateProxy_enter__E)
                  000056a0    00000160     sysbios.aer4ft : BIOS.obj (.text:ti_sysbios_family_arm_v7r_vim_Hwi_reconfig__E)
                  00005800    0000014a     libuart_xwr68xx.aer4f : uartsci.oer4f (.text:UartSci_ISR)
                  0000594a    00000002     rtsv7R4_T_le_v3D16_eabi.lib : i_div0.obj (.text)
                  0000594c    00000144     libqspiflash_xwr68xx.aer4f : qspiflash.oer4f (.text:QSPIFlash_sysDmaRead)
                  00005a90    00000144     sysbios.aer4ft : BIOS.obj (.text:ti_sysbios_timers_rti_Timer_Module_startup__E)
                  00005bd4    00000140     sbl_xwr68xx.oer4f (.text:SBL_calculateImageOffset)
                  00005d14    0000000c     libuart_xwr68xx.aer4f : uartsci_dma.oer4f (.text:UartSci_isDMAEnabled)
                  00005d20    00000140     sysbios.aer4ft : BIOS.obj (.text:ti_sysbios_heaps_HeapMem_Instance_init__E)
                  00005e60    00000140                    : BIOS.obj (.text:xdc_runtime_Core_createObject__I)
                  00005fa0    0000013c                    : BIOS.obj (.text:ti_sysbios_family_arm_v7r_vim_Hwi_dispatchIRQC__I)
                  000060dc    00000138     rtsv7R4_T_le_v3D16_eabi.lib : fputs.obj (.text)
                  00006214    0000000c     sysbios.aer4ft : arm_IntrinsicsSupport_asm.obj (.text:_ti_sysbios_family_arm_IntrinsicsSupport_maxbitA)
                  00006220    00000134                    : BIOS.obj (.text:xdc_runtime_Startup_startMods__I)
                  00006354    0000000c     rtsv7R4_T_le_v3D16_eabi.lib : copy_zero_init.obj (.text:decompress:ZI)
                  00006360    00000130     sysbios.aer4ft : BIOS.obj (.text:xdc_runtime_Error_policyDefault__E)
                  00006490    00000128     image_validity.oer4f (.text:SBL_decryptImage)
                  000065b8    00000128     image_validity.oer4f (.text:SBL_imageValidationCheck)
                  000066e0    00000114     libsoc_xwr68xx.aer4f : soc_xwr68xx_mss.oer4f (.text:SOC_setPeripheralClock)
                  000067f4    0000000c     sbl_per4ft.oer4ft (.text:ti_sysbios_knl_Queue_Object__get__S)
                  00006800    0000010c     sysbios.aer4ft : BIOS.obj (.text:xdc_runtime_Core_constructObject__I)
                  0000690c    00000108     libdma_xwr68xx.aer4f : dma.oer4f (.text:DMA_disableInterrupt)
                  00006a14    00000104     sbl_xwr68xx.oer4f (.text:SBL_mpuConfigDefault)
                  00006b18    00000004     sbl_per4ft.oer4ft (.text:ti_sysbios_heaps_HeapMem_Module_GateProxy_leave__E)
                  00006b1c    00000004     sbl_per4ft.oer4ft (.text:ti_sysbios_knl_Clock_TimerProxy_getMaxTicks__E)
                  00006b20    00000104     sysbios.aer4ft : BIOS.obj (.text:ti_sysbios_timers_rti_Timer_getFreq__E)
                  00006c24    00000100     libdma_xwr68xx.aer4f : dma.oer4f (.text:DMA_clearChannelInterruptFlag)
                  00006d24    000000fc     libcrc_xwr68xx.aer4f : crc.oer4f (.text:CRC_computeSignature)
                  00006e20    000000f8     sbl_per4ft.oer4ft (.text:xdc_runtime_System_printfExtend__I)
                  00006f18    000000ec     rtsv7R4_T_le_v3D16_eabi.lib : s_scalbn.obj (.text)
                  00007004    0000000a     libosal_xwr68xx.aer4f : MemoryP_tirtos.oer4f (.text:MemoryP_ctrlFree)
                  0000700e    00000002     sbl_per4ft.oer4ft (.text:ti_sysbios_BIOS_nullFunc__I)
                  00007010    000000ec     sysbios.aer4ft : BIOS.obj (.text:ti_sysbios_heaps_HeapBuf_Module_startup__E)
                  000070fc    00000004     sbl_per4ft.oer4ft (.text:ti_sysbios_knl_Semaphore_delete)
                  00007100    000000e8     sysbios.aer4ft : BIOS.obj (.text:ti_sysbios_family_arm_v7r_vim_Hwi_Instance_init__E)
                  000071e8    000000e0     libdma_xwr68xx.aer4f : dma.oer4f (.text:DMA_enableInterrupt)
                  000072c8    000000de     sbl.oer4f (.text:SBL_imageFlasher)
                  000073a6    00000002     --HOLE-- [fill = 0]
                  000073a8    000000dc     rtsv7R4_T_le_v3D16_eabi.lib : setvbuf.obj (.text)
                  00007484    0000000a     libosal_xwr68xx.aer4f : SemaphoreP_tirtos.oer4f (.text:SemaphoreP_post)
                  0000748e    00000002     --HOLE-- [fill = 0]
                  00007490    000000dc     sysbios.aer4ft : BIOS.obj (.text:ti_sysbios_knl_Semaphore_post__E)
                  0000756c    000000d4     libqspiflash_xwr68xx.aer4f : qspiflash.oer4f (.text:QSPIFlash_singleWrite)
                  00007640    000000d0     sysbios.aer4ft : exc_Exception_asm.obj (.text:ti_sysbios_family_arm_exc_Exception_excHandlerAsm__I)
                  00007710    000000cc     rtsv7R4_T_le_v3D16_eabi.lib : fflush.obj (.text)
                  000077dc    00000004     sbl_per4ft.oer4ft (.text:xdc_runtime_System_Module_GateProxy_enter__E)
                  000077e0    000000cc     sysbios.aer4ft : BIOS.obj (.text:ti_sysbios_knl_Task_checkStacks__E)
                  000078ac    000000c8     libsoc_xwr68xx.aer4f : soc_xwr68xx.oer4f (.text:SOC_ungateClock)
                  00007974    0000000a     libuart_xwr68xx.aer4f : UART.oer4f (.text:UART_close)
                  0000797e    00000002     --HOLE-- [fill = 0]
                  00007980    000000c4     sysbios.aer4ft : BIOS.obj (.text:ti_sysbios_family_arm_v7r_vim_Hwi_Module_startup__E)
                  00007a44    0000000a     libuart_xwr68xx.aer4f : UART.oer4f (.text:UART_read)
                  00007a4e    00000002     --HOLE-- [fill = 0]
                  00007a50    000000c4     sysbios.aer4ft : BIOS.obj (.text:ti_sysbios_knl_Task_postInit__I)
                  00007b14    0000000a     libuart_xwr68xx.aer4f : UART.oer4f (.text:UART_writePolling)
                  00007b1e    00000002     --HOLE-- [fill = 0]
                  00007b20    000000c0     sysbios.aer4ft : BIOS.obj (.text:ti_sysbios_timers_rti_Timer_startup__E)
                  00007be0    000000bc     buffer_mgmt.oer4f (.text:SBL_bufferMgmt)
                  00007c9c    000000bc     rtsv7R4_T_le_v3D16_eabi.lib : open.obj (.text)
                  00007d58    000000b8     libdma_xwr68xx.aer4f : dma.oer4f (.text:DMA_getChannelInterruptFlag)
                  00007e10    000000b6     libsoc_xwr68xx.aer4f : soc_mpu.o (.text)
                  00007ec6    0000000a     sbl_per4ft.oer4ft (.text:xdc_runtime_IHeap_alloc)
                  00007ed0    000000b4     sysbios.aer4ft : BIOS.obj (.text:ti_sysbios_gates_GateMutex_enter__E)
                  00007f84    000000b2     libuart_xwr68xx.aer4f : uartsci_dma.oer4f (.text:UartSci_openDMA)
                  00008036    0000000a     sbl_per4ft.oer4ft (.text:xdc_runtime_IHeap_free)
                  00008040    000000b0     sysbios.aer4ft : BIOS.obj (.text:ti_sysbios_knl_Swi_restoreHwi__E)
                  000080f0    000000b0                    : BIOS.obj (.text:xdc_runtime_Text_putMod__E)
                  000081a0    000000ae     rtsv7R4_T_le_v3D16_eabi.lib : _io_perm.obj (.text)
                  0000824e    00000002     --HOLE-- [fill = 0]
                  00008250    000000a8     libpinmux_xwr68xx.aer4f : pinmux.oer4f (.text:Pinmux_Set_OverrideCtrl)
                  000082f8    000000a4     libdma_xwr68xx.aer4f : dma.oer4f (.text:DMA_assignChannel)
                  0000839c    000000a4     libsoc_xwr68xx.aer4f : soc_xwr68xx_mss.oer4f (.text:SOC_unhaltDSS)
                  00008440    000000a2     sysbios.aer4ft : BIOS.obj (.text:xdc_runtime_Text_putSite__E)
                  000084e2    00000002     --HOLE-- [fill = 0]
                  000084e4    000000a0     libqspiflash_xwr68xx.aer4f : qspiflash.oer4f (.text:QSPIFlash_configMmapRead)
                  00008584    000000a0                                : qspiflash_device_macronix.oer4f (.text:QSPIFlash_macronix_progQuadRead)
                  00008624    000000a0     auto_init.aer4ft : auto_init.oer4ft (.text)
                  000086c4    0000009c     libqspiflash_xwr68xx.aer4f : qspiflash_device_spansion.oer4f (.text:QSPIFlash_spansion_progQuadRead)
                  00008760    0000009c     libuart_xwr68xx.aer4f : uartsci.oer4f (.text:UartSci_write)
                  000087fc    0000009c     rtsv7R4_T_le_v3D16_eabi.lib : memcpy_t2.obj (.text)
                  00008898    00000004     sbl_per4ft.oer4ft (.text:xdc_runtime_System_Module_GateProxy_leave__E)
                  0000889c    00000004     --HOLE-- [fill = 0]
                  000088a0    0000009c     sysbios.aer4ft : BIOS.obj (.text:ti_sysbios_family_arm_v7r_vim_Hwi_initIntController__I)
                  0000893c    00000004     --HOLE-- [fill = 0]
                  00008940    0000009c                    : BIOS.obj (.text:ti_sysbios_family_arm_v7r_vim_Hwi_mapChannel__I)
                  000089dc    00000004     --HOLE-- [fill = 0]
                  000089e0    0000009c                    : BIOS.obj (.text:ti_sysbios_knl_Semaphore_Instance_init__E)
                  00008a7c    00000004     --HOLE-- [fill = 0]
                  00008a80    0000009c                    : BIOS.obj (.text:ti_sysbios_knl_Swi_runLoop__I)
                  00008b1c    00000098     rtsv7R4_T_le_v3D16_eabi.lib : fclose.obj (.text)
                  00008bb4    00000098                                 : fputc.obj (.text)
                  00008c4c    00000098     sysbios.aer4ft : vim_Hwi_asm_switch.obj (.text)
                  00008ce4    00000096     libuart_xwr68xx.aer4f : uartsci.oer4f (.text:UartSci_readChar)
                  00008d7a    00000094     sbl_xwr68xx.oer4f (.text:SBL_platformInit)
                  00008e0e    00000002     --HOLE-- [fill = 0]
                  00008e10    00000094     libsoc_xwr68xx.aer4f : soc_xwr68xx.oer4f (.text:SOC_gateClock)
                  00008ea4    00000094     sysbios.aer4ft : vim_Hwi_asm.obj (.text:ti_sysbios_family_arm_v7r_vim_Hwi_dispatchIRQ__I)
                  00008f38    00000090     libuart_xwr68xx.aer4f : uartsci_dma.oer4f (.text:UartSci_initiateTxDMA)
                  00008fc8    00000090                           : uartsci.oer4f (.text:UartSci_read)
                  00009058    0000008c     libdma_xwr68xx.aer4f : dma.oer4f (.text:DMA_deleteInstance)
                  000090e4    0000008c     libsoc_xwr68xx.aer4f : soc.oer4f (.text:SOC_init)
                  00009170    0000008c     libuart_xwr68xx.aer4f : uartsci_dma.oer4f (.text:UartSci_initiateRxDMA)
                  000091fc    00000004     --HOLE-- [fill = 0]
                  00009200    0000008c     sysbios.aer4ft : BIOS.obj (.text:ti_sysbios_family_arm_v7r_vim_Hwi_Instance_finalize__E)
                  0000928c    00000004     --HOLE-- [fill = 0]
                  00009290    0000008c                    : BIOS.obj (.text:xdc_runtime_Memory_alloc__E)
                  0000931c    00000088     sbl.oer4f (.text:SBL_init)
                  000093a4    00000088     rtsv7R4_T_le_v3D16_eabi.lib : vsnprintf.obj (.text)
                  0000942c    00000084     sbl_xwr68xx.oer4f (.text:SBL_mpuConfigBSS)
                  000094b0    00000080     libuart_xwr68xx.aer4f : uartsci.oer4f (.text:UartSci_writePolling)
                  00009530    00000080     sysbios.aer4ft : BIOS.obj (.text:ti_sysbios_timers_rti_Timer_initDevice__I)
                  000095b0    0000007e     libosal_xwr68xx.aer4f : HwiP_tirtos.oer4f (.text:HwiP_create)
                  0000962e    00000002     --HOLE-- [fill = 0]
                  00009630    0000007c     libuart_xwr68xx.aer4f : uartsci.oer4f (.text:UartSci_readPolling)
                  000096ac    0000007c     sysbios.aer4ft : arm_TaskSupport_asm.obj (.text:_ti_sysbios_family_arm_TaskSupport_buildTaskStack)
                  00009728    00000008     main.oer4f (.tramp.main.1)
                  00009730    0000007c     sysbios.aer4ft : BIOS.obj (.text:ti_sysbios_knl_Clock_workFunc__E)
                  000097ac    00000004     --HOLE-- [fill = 0]
                  000097b0    0000007c                    : BIOS.obj (.text:xdc_runtime_Core_deleteObject__I)
                  0000982c    0000007a     rtsv7R4_T_le_v3D16_eabi.lib : memset_t2.obj (.text)
                  000098a6    00000002     --HOLE-- [fill = 0]
                  000098a8    00000078     libqspiflash_xwr68xx.aer4f : qspiflash.oer4f (.text:QSPIFlash_mmapRead)
                  00009920    00000078                                : qspiflash.oer4f (.text:QSPIFlash_sectorErase)
                  00009998    00000078     libqspi_xwr68xx.aer4f : qspi.oer4f (.text:QSPI_cfgRead)
                  00009a10    00000077                           : qspi.oer4f (.text:QSPI_memAccessCfg)
                  00009a87    00000001     --HOLE-- [fill = 0]
                  00009a88    00000074     rtsv7R4_T_le_v3D16_eabi.lib : getdevice.obj (.text)
                  00009afc    00000074                                 : s_frexp.obj (.text)
                  00009b70    00000070                                 : printf.obj (.text)
                  00009be0    00000070     sysbios.aer4ft : BIOS.obj (.text:ti_sysbios_knl_Task_exit__E)
                  00009c50    00000070                    : BIOS.obj (.text:xdc_runtime_Error_print__E)
                  00009cc0    00000070                    : BIOS.obj (.text:xdc_runtime_Text_visitRope2__I)
                  00009d30    0000006e     libdma_xwr68xx.aer4f : dma.oer4f (.text:DMA_btcISR)
                  00009d9e    00000002     --HOLE-- [fill = 0]
                  00009da0    0000006c                          : dma.oer4f (.text:DMA_disableChannel)
                  00009e0c    0000006c                          : dma.oer4f (.text:DMA_enableChannel)
                  00009e78    0000006c     libpinmux_xwr68xx.aer4f : pinmux.oer4f (.text:Pinmux_Set_FuncSel)
                  00009ee4    0000006c     libqspiflash_xwr68xx.aer4f : qspiflash.oer4f (.text:QSPIFlashReadSFDP)
                  00009f50    0000006c     libqspi_xwr68xx.aer4f : qspi.oer4f (.text:QSPI_cfgWrite)
                  00009fbc    0000006c     rtsv7R4_T_le_v3D16_eabi.lib : copy_decompress_lzss.obj (.text:decompress:lzss)
                  0000a028    0000006c                                 : trgmsg.obj (.text)
                  0000a094    0000006a     libdma_xwr68xx.aer4f : dma.oer4f (.text:DMA_berISR)
                  0000a0fe    00000002     --HOLE-- [fill = 0]
                  0000a100    0000006a                          : dma.oer4f (.text:DMA_ftcISR)
                  0000a16a    00000002     --HOLE-- [fill = 0]
                  0000a16c    0000006a                          : dma.oer4f (.text:DMA_hbcISR)
                  0000a1d6    00000002     --HOLE-- [fill = 0]
                  0000a1d8    0000006a                          : dma.oer4f (.text:DMA_lfsISR)
                  0000a242    0000006a     libuart_xwr68xx.aer4f : uartsci.oer4f (.text:UartSci_control)
                  0000a2ac    00000068     rtsv7R4_T_le_v3D16_eabi.lib : hostlseek.obj (.text)
                  0000a314    00000068                                 : hostrename.obj (.text)
                  0000a37c    00000064     libqspi_xwr68xx.aer4f : qspi.oer4f (.text:QSPI_close)
                  0000a3e0    00000064     image_parser.oer4f (.text:SBL_parserInitialization)
                  0000a444    00000064     libosal_xwr68xx.aer4f : SemaphoreP_tirtos.oer4f (.text:SemaphoreP_create)
                  0000a4a8    00000064     rtsv7R4_T_le_v3D16_eabi.lib : fseek.obj (.text)
                  0000a50c    00000064     sysbios.aer4ft : exc_Exception_asm.obj (.text:ti_sysbios_family_arm_exc_Exception_initCore0__I)
                  0000a570    00000064                    : BIOS.obj (.text:ti_sysbios_family_arm_v7r_vim_Hwi_phantomIntHandler__I)
                  0000a5d4    0000000a                    : tms570_Core_asm.obj (.text:ti_sysbios_family_arm_v7r_tms570_Core_getId__E)
                  0000a5de    00000002     --HOLE-- [fill = 0]
                  0000a5e0    00000064                    : BIOS.obj (.text:ti_sysbios_knl_Task_schedule__I)
                  0000a644    0000000c     --HOLE-- [fill = 0]
                  0000a650    00000064                    : BIOS.obj (.text:xdc_runtime_Startup_exec__E)
                  0000a6b4    0000000c     --HOLE-- [fill = 0]
                  0000a6c0    00000060                    : BIOS.obj (.text:ti_sysbios_heaps_HeapMem_alloc__E)
                  0000a720    00000060                    : BIOS.obj (.text:xdc_runtime_Assert_raise__I)
                  0000a780    0000005f                    : BIOS.obj (.text:xdc_runtime_Text_putLab__E)
                  0000a7df    00000001     --HOLE-- [fill = 0]
                  0000a7e0    0000005e     libuart_xwr68xx.aer4f : uartsci.oer4f (.text:UartSci_writeChar)
                  0000a83e    0000005c     libqspiflash_xwr68xx.aer4f : qspiflash.oer4f (.text:QSPIFlashGetDeviceID)
                  0000a89a    00000002     --HOLE-- [fill = 0]
                  0000a89c    0000005c     rtsv7R4_T_le_v3D16_eabi.lib : hostopen.obj (.text)
                  0000a8f8    0000005c                                 : hostread.obj (.text)
                  0000a954    0000000c     --HOLE-- [fill = 0]
                  0000a960    0000005c     sysbios.aer4ft : BIOS.obj (.text:ti_sysbios_knl_Swi_schedule__I)
                  0000a9bc    0000005a     libuart_xwr68xx.aer4f : uartsci.oer4f (.text:UartSci_readCancel)
                  0000aa16    00000058                           : uartsci_dma.oer4f (.text:UartSci_closeDMA)
                  0000aa6e    00000002     --HOLE-- [fill = 0]
                  0000aa70    00000058     rtsv7R4_T_le_v3D16_eabi.lib : close.obj (.text)
                  0000aac8    00000058                                 : hostwrite.obj (.text)
                  0000ab20    00000054     libcrc_xwr68xx.aer4f : crc.oer4f (.text:CRC_getTransactionId)
                  0000ab74    00000054     libdma_xwr68xx.aer4f : dma.oer4f (.text:DMA_freeChannel)
                  0000abc8    00000054     libqspiflash_xwr68xx.aer4f : qspiflash.oer4f (.text:QSPIFlash_writeEnable)
                  0000ac1c    00000054     transport.oer4f (.text:SBL_transportConfig)
                  0000ac70    00000054     rtsv7R4_T_le_v3D16_eabi.lib : ltoa.obj (.text)
                  0000acc4    00000054     sbl_per4ft.oer4ft (.text:ti_sysbios_family_arm_v7r_vim_Hwi_create)
                  0000ad18    00000008     --HOLE-- [fill = 0]
                  0000ad20    00000054     sysbios.aer4ft : BIOS.obj (.text:ti_sysbios_heaps_HeapMem_getStats__E)
                  0000ad74    0000000c     --HOLE-- [fill = 0]
                  0000ad80    00000054                    : BIOS.obj (.text:ti_sysbios_knl_Task_startCore__E)
                  0000add4    0000000c     --HOLE-- [fill = 0]
                  0000ade0    00000054                    : BIOS.obj (.text:xdc_runtime_Core_assignLabel__I)
                  0000ae34    00000050     libcrc_xwr68xx.aer4f : crc.oer4f (.text:CRC_getSignature)
                  0000ae84    00000050     rtsv7R4_T_le_v3D16_eabi.lib : atoi.obj (.text)
                  0000aed4    00000050                                 : exit.obj (.text)
                  0000af24    00000050                                 : u_div32.obj (.text)
                  0000af74    0000000c     --HOLE-- [fill = 0]
                  0000af80    00000050     sysbios.aer4ft : BIOS.obj (.text:ti_sysbios_timers_rti_Timer_setPeriodMicroSecs__E)
                  0000afd0    00000050                    : BIOS.obj (.text:xdc_runtime_System_exit__E)
                  0000b020    0000004c     libqspiflash_xwr68xx.aer4f : qspiflash.oer4f (.text:QSPIFlashSysDmaIntHandler)
                  0000b06c    0000004c                                : qspiflash_device_macronix.oer4f (.text:QSPIFlash_macronix_init)
                  0000b0b8    0000004c     libuart_xwr68xx.aer4f : uartsci.oer4f (.text:UartSci_writeCancel)
                  0000b104    0000004c     rtsv7R4_T_le_v3D16_eabi.lib : cpy_tbl.obj (.text)
                  0000b150    0000004c     sysbios.aer4ft : BIOS.obj (.text:ti_sysbios_family_arm_v7r_vim_Hwi_getStackInfo__E)
                  0000b19c    0000004c     sbl_per4ft.oer4ft (.text:ti_sysbios_knl_Task_create)
                  0000b1e8    00000008     --HOLE-- [fill = 0]
                  0000b1f0    0000004a     sysbios.aer4ft : BIOS.obj (.text:xdc_runtime_Core_assignParams__I)
                  0000b23a    00000006     --HOLE-- [fill = 0]
                  0000b240    0000004a                    : BIOS.obj (.text:xdc_runtime_Text_xprintf__I)
                  0000b28a    00000044     libcrc_xwr68xx.aer4f : crc.oer4f (.text:CRC_resetSignature)
                  0000b2ce    00000002     --HOLE-- [fill = 0]
                  0000b2d0    00000044     libsoc_xwr68xx.aer4f : soc_xwr68xx_mss.oer4f (.text:SOC_resetDMA)
                  0000b314    00000044     rtsv7R4_T_le_v3D16_eabi.lib : hostclose.obj (.text)
                  0000b358    00000044                                 : hostunlink.obj (.text)
                  0000b39c    00000004     --HOLE-- [fill = 0]
                  0000b3a0    00000044     sysbios.aer4ft : BIOS.obj (.text:ti_sysbios_family_arm_v7r_tms570_Core_Module_startup__E)
                  0000b3e4    0000000c     --HOLE-- [fill = 0]
                  0000b3f0    00000044                    : BIOS.obj (.text:ti_sysbios_knl_Task_allBlockedFunction__I)
                  0000b434    0000000c     --HOLE-- [fill = 0]
                  0000b440    00000044                    : BIOS.obj (.text:xdc_runtime_System_atexit__E)
                  0000b484    00000040     libqspiflash_xwr68xx.aer4f : qspiflash.oer4f (.text:QSPIFlash_progQuadRead)
                  0000b4c4    00000040                                : qspiflash_device_spansion.oer4f (.text:QSPIFlash_spansion_init)
                  0000b504    0000000c     --HOLE-- [fill = 0]
                  0000b510    00000040     sysbios.aer4ft : BIOS.obj (.text:ti_sysbios_family_arm_v7r_vim_Hwi_setType__E)
                  0000b550    00000040                    : BIOS.obj (.text:ti_sysbios_knl_Swi_post__E)
                  0000b590    00000040                    : BIOS.obj (.text:ti_sysbios_timers_rti_Timer_stop__E)
                  0000b5d0    0000003e     libcrc_xwr68xx.aer4f : crc.oer4f (.text:CSL_FINSR)
                  0000b60e    0000003e     libdma_xwr68xx.aer4f : dma.oer4f (.text:CSL_FINSR)
                  0000b64c    0000003e     libpinmux_xwr68xx.aer4f : pinmux.oer4f (.text:CSL_FINSR)
                  0000b68a    0000003e     libqspi_xwr68xx.aer4f : qspi.oer4f (.text:CSL_FINSR)
                  0000b6c8    0000003e     libsoc_xwr68xx.aer4f : soc.oer4f (.text:CSL_FINSR)
                  0000b706    0000003e                          : soc_xwr68xx.oer4f (.text:CSL_FINSR)
                  0000b744    0000003e                          : soc_xwr68xx_mss.oer4f (.text:CSL_FINSR)
                  0000b782    0000003e     libuart_xwr68xx.aer4f : uartsci.oer4f (.text:CSL_FINSR)
                  0000b7c0    0000003e                           : uartsci.oer4f (.text:UartSci_close)
                  0000b7fe    00000002     --HOLE-- [fill = 0]
                  0000b800    0000003c     libqspiflash_xwr68xx.aer4f : qspiflash.oer4f (.text:QSPIFlash_close)
                  0000b83c    0000003c     transport.oer4f (.text:SBL_printf)
                  0000b878    0000003c     buffer_mgmt.oer4f (.text:SBL_resetBuffers)
                  0000b8b4    0000003c     libsoc_xwr68xx.aer4f : soc.oer4f (.text:SOC_unhaltBSS)
                  0000b8f0    0000003c     sysbios.aer4ft : vim_Hwi_asm.obj (.text:ti_sysbios_family_arm_v7r_vim_Hwi_init__I)
                  0000b92c    00000004     --HOLE-- [fill = 0]
                  0000b930    0000003c                    : BIOS.obj (.text:ti_sysbios_hal_Hwi_checkStack)
                  0000b96c    00000004     --HOLE-- [fill = 0]
                  0000b970    0000003c                    : BIOS.obj (.text:ti_sysbios_heaps_HeapMem_init__I)
                  0000b9ac    00000004     --HOLE-- [fill = 0]
                  0000b9b0    0000003c                    : BIOS.obj (.text:ti_sysbios_knl_Swi_startup__E)
                  0000b9ec    00000004     --HOLE-- [fill = 0]
                  0000b9f0    0000003c                    : BIOS.obj (.text:ti_sysbios_timers_rti_Timer_setPeriod__E)
                  0000ba2c    0000003a     libosal_xwr68xx.aer4f : HwiP_tirtos.oer4f (.text:HwiP_delete)
                  0000ba66    00000002     --HOLE-- [fill = 0]
                  0000ba68    00000038     libsoc_xwr68xx.aer4f : soc_xwr68xx_mss.oer4f (.text:SOC_getMSSVCLKFrequency)
                  0000baa0    00000038     libuart_xwr68xx.aer4f : UART.oer4f (.text:UART_init)
                  0000bad8    00000036     rtsv7R4_T_le_v3D16_eabi.lib : strncpy.obj (.text)
                  0000bb0e    00000002     --HOLE-- [fill = 0]
                  0000bb10    00000034     sbl.oer4f (.text:SBL_bufferMgmtTask)
                  0000bb44    00000034     libsoc_xwr68xx.aer4f : soc_xwr68xx_mss.oer4f (.text:SOC_hasDSPCore)
                  0000bb78    00000034     libuart_xwr68xx.aer4f : UART.oer4f (.text:UART_open)
                  0000bbac    00000034     sbl_per4ft.oer4ft (.text:ti_sysbios_knl_Semaphore_create)
                  0000bbe0    00000034     sysbios.aer4ft : BIOS.obj (.text:ti_sysbios_knl_Task_processVitalTaskFlag__I)
                  0000bc14    00000032     libcrc_xwr68xx.aer4f : crc.oer4f (.text:CRC_getCRCDataSelectBitValue)
                  0000bc46    00000002     --HOLE-- [fill = 0]
                  0000bc48    00000032                          : crc.oer4f (.text:CRC_getCRCTypeBitValue)
                  0000bc7a    00000006     --HOLE-- [fill = 0]
                  0000bc80    00000032     sysbios.aer4ft : BIOS.obj (.text:ti_sysbios_hal_Hwi_initStack)
                  0000bcb2    00000002     --HOLE-- [fill = 0]
                  0000bcb4    00000030     libqspiflash_xwr68xx.aer4f : qspiflash.oer4f (.text:QSPIFlash_getDeviceID)
                  0000bce4    00000030     libsoc_xwr68xx.aer4f : soc.oer4f (.text:SOC_softReset)
                  0000bd14    00000030     sbl_per4ft.oer4ft (.text:ti_sysbios_BIOS_atExitFunc__I)
                  0000bd44    00000030     sbl_per4ft.oer4ft (.text:ti_sysbios_BIOS_startFunc__I)
                  0000bd74    0000000c     --HOLE-- [fill = 0]
                  0000bd80    00000030     sysbios.aer4ft : BIOS.obj (.text:ti_sysbios_family_arm_TaskSupport_start__E)
                  0000bdb0    00000030     sbl_per4ft.oer4ft (.text:ti_sysbios_gates_GateHwi_Object__create__S)
                  0000bde0    00000030     sbl_per4ft.oer4ft (.text:ti_sysbios_gates_GateMutex_Object__create__S)
                  0000be10    00000030     sbl_per4ft.oer4ft (.text:ti_sysbios_heaps_HeapMem_Object__create__S)
                  0000be40    00000030     sysbios.aer4ft : BIOS.obj (.text:ti_sysbios_heaps_HeapMem_free__E)
                  0000be70    00000030     sbl_per4ft.oer4ft (.text:ti_sysbios_knl_Semaphore_construct)
                  0000bea0    0000002f     sysbios.aer4ft : BIOS.obj (.text:xdc_runtime_Text_printVisFxn__I)
                  0000becf    00000001     --HOLE-- [fill = 0]
                  0000bed0    0000002e     sbl_per4ft.oer4ft (.text:ti_sysbios_rts_MemAlloc_alloc)
                  0000befe    00000002     --HOLE-- [fill = 0]
                  0000bf00    0000002c     libcrc_xwr68xx.aer4f : crc.oer4f (.text:CRC_close)
                  0000bf2c    0000002c     crc16.oer4f (.text:crc16_ccitt)
                  0000bf58    0000002c     rtsv7R4_T_le_v3D16_eabi.lib : unlink.obj (.text)
                  0000bf84    0000002c     sbl_per4ft.oer4ft (.text:ti_sysbios_knl_Clock_doTick__I)
                  0000bfb0    0000002c     sbl_per4ft.oer4ft (.text:ti_sysbios_knl_Queue_construct)
                  0000bfdc    00000004     --HOLE-- [fill = 0]
                  0000bfe0    0000002c     sysbios.aer4ft : BIOS.obj (.text:ti_sysbios_knl_Semaphore_pendTimeout__I)
                  0000c00c    00000004     --HOLE-- [fill = 0]
                  0000c010    0000002c                    : BIOS.obj (.text:ti_sysbios_knl_Swi_Module_startup__E)
                  0000c03c    00000004     --HOLE-- [fill = 0]
                  0000c040    0000002c                    : BIOS.obj (.text:ti_sysbios_knl_Task_unblockI__E)
                  0000c06c    00000004     --HOLE-- [fill = 0]
                  0000c070    0000002c                    : BIOS.obj (.text:ti_sysbios_timers_rti_Timer_periodicStub__E)
                  0000c09c    0000002a     libsoc_xwr68xx.aer4f : soc.oer4f (.text:SOC_SystemISR)
                  0000c0c6    00000002     --HOLE-- [fill = 0]
                  0000c0c8    00000028     libqspiflash_xwr68xx.aer4f : qspiflash.oer4f (.text:QSPIFlash_getExtFlashAddr)
                  0000c0f0    00000028     image_validity.oer4f (.text:SBL_imageAuthParamsInit)
                  0000c118    00000028     libuart_xwr68xx.aer4f : uartsci_dma.oer4f (.text:UartSci_RxDMACallbackFxn)
                  0000c140    00000028                           : uartsci_dma.oer4f (.text:UartSci_TxDMACallbackFxn)
                  0000c168    00000028     rtsv7R4_T_le_v3D16_eabi.lib : lseek.obj (.text)
                  0000c190    00000028                                 : write.obj (.text)
                  0000c1b8    00000008     --HOLE-- [fill = 0]
                  0000c1c0    00000028     sysbios.aer4ft : BIOS.obj (.text:ti_sysbios_knl_Idle_run__E)
                  0000c1e8    00000008     --HOLE-- [fill = 0]
                  0000c1f0    00000028                    : BIOS.obj (.text:ti_sysbios_knl_Task_restore__E)
                  0000c218    00000008     --HOLE-- [fill = 0]
                  0000c220    00000028                    : BIOS.obj (.text:xdc_runtime_SysStd_abort__E)
                  0000c248    00000008     --HOLE-- [fill = 0]
                  0000c250    00000028                    : BIOS.obj (.text:xdc_runtime_System_aprintf_va__F)
                  0000c278    00000008     --HOLE-- [fill = 0]
                  0000c280    00000026                    : BIOS.obj (.text:xdc_runtime_System_printf_va__F)
                  0000c2a6    00000024     libcrc_xwr68xx.aer4f : crc.oer4f (.text:CRC_isTransactionIdValid)
                  0000c2ca    00000002     --HOLE-- [fill = 0]
                  0000c2cc    00000024     image_validity.oer4f (.text:SBL_imageDecryptParamsInit)
                  0000c2f0    00000024     sbl_per4ft.oer4ft (.text:ti_sysbios_BIOS_errorRaiseHook__I)
                  0000c314    00000024     sbl_per4ft.oer4ft (.text:ti_sysbios_BIOS_registerRTSLock__I)
                  0000c338    00000024     sbl_per4ft.oer4ft (.text:ti_sysbios_BIOS_removeRTSLock__I)
                  0000c35c    00000024     sbl_per4ft.oer4ft (.text:ti_sysbios_gates_GateMutex_Object__delete__S)
                  0000c380    00000024     sysbios.aer4ft : BIOS.obj (.text:ti_sysbios_knl_Clock_Module_startup__E)
                  0000c3a4    00000024     sbl_per4ft.oer4ft (.text:ti_sysbios_knl_Semaphore_Object__delete__S)
                  0000c3c8    00000008     --HOLE-- [fill = 0]
                  0000c3d0    00000024     sysbios.aer4ft : BIOS.obj (.text:ti_sysbios_knl_Task_restoreHwi__E)
                  0000c3f4    00000022     libqspiflash_xwr68xx.aer4f : qspiflash.oer4f (.text:QSPIFlashReadCmd)
                  0000c416    00000022     libuart_xwr68xx.aer4f : uartsci.oer4f (.text:UartSci_disableRxDMA)
                  0000c438    00000022                           : uartsci.oer4f (.text:UartSci_enableRxDMA)
                  0000c45a    00000002     --HOLE-- [fill = 0]
                  0000c45c    00000020     libpinmux_xwr68xx.aer4f : pinmux.oer4f (.text:Pinmux_Unlock)
                  0000c47c    00000020     rtsv7R4_T_le_v3D16_eabi.lib : memchr.obj (.text)
                  0000c49c    00000020     sbl_per4ft.oer4ft (.text:ti_sysbios_family_arm_v7r_vim_Hwi_Object__delete__S)
                  0000c4bc    00000004     --HOLE-- [fill = 0]
                  0000c4c0    00000020     sysbios.aer4ft : BIOS.obj (.text:ti_sysbios_family_arm_v7r_vim_Hwi_disableInterrupt__E)
                  0000c4e0    00000020                    : BIOS.obj (.text:ti_sysbios_family_arm_v7r_vim_Hwi_enableInterrupt__E)
                  0000c500    00000020     sbl_per4ft.oer4ft (.text:ti_sysbios_gates_GateHwi_Object__delete__S)
                  0000c520    00000020     sbl_per4ft.oer4ft (.text:ti_sysbios_heaps_HeapMem_Object__delete__S)
                  0000c540    00000020     sbl_per4ft.oer4ft (.text:ti_sysbios_knl_Semaphore_destruct)
                  0000c560    0000001c     libcrc_xwr68xx.aer4f : crc.oer4f (.text:CRC_releaseTransactionId)
                  0000c57c    0000001c     libdma_xwr68xx.aer4f : dma.oer4f (.text:CSL_FEXTR)
                  0000c598    0000001c     libsoc_xwr68xx.aer4f : soc.oer4f (.text:CSL_FEXTR)
                  0000c5b4    0000001c                          : soc_xwr68xx.oer4f (.text:CSL_FEXTR)
                  0000c5d0    0000001c                          : soc_xwr68xx_mss.oer4f (.text:CSL_FEXTR)
                  0000c5ec    0000001c     libuart_xwr68xx.aer4f : uartsci.oer4f (.text:CSL_FEXTR)
                  0000c608    0000001c     sysbios.aer4ft : arm_TaskSupport_asm.obj (.text:_ti_sysbios_family_arm_TaskSupport_glue)
                  0000c624    0000001c                    : arm_TaskSupport_asm.obj (.text:_ti_sysbios_family_arm_TaskSupport_swap__E)
                  0000c640    0000001c     rtsv7R4_T_le_v3D16_eabi.lib : memccpy.obj (.text)
                  0000c65c    0000001c     sbl_per4ft.oer4ft (.text:ti_sysbios_BIOS_rtsLock__I)
                  0000c678    00000008     --HOLE-- [fill = 0]
                  0000c680    0000001c     sysbios.aer4ft : BIOS.obj (.text:ti_sysbios_gates_GateMutex_Instance_init__E)
                  0000c69c    00000004     --HOLE-- [fill = 0]
                  0000c6a0    0000001c                    : BIOS.obj (.text:ti_sysbios_gates_GateMutex_leave__E)
                  0000c6bc    0000001c     sbl_per4ft.oer4ft (.text:ti_sysbios_knl_Queue_destruct)
                  0000c6d8    0000001a     sbl_per4ft.oer4ft (.text:free)
                  0000c6f2    0000001a     rtsv7R4_T_le_v3D16_eabi.lib : s_copysign.obj (.text)
                  0000c70c    0000001a     sbl_per4ft.oer4ft (.text:ti_sysbios_gates_GateHwi_Handle__label__S)
                  0000c726    0000001a     sbl_per4ft.oer4ft (.text:ti_sysbios_gates_GateMutex_Handle__label__S)
                  0000c740    0000001a     sbl_per4ft.oer4ft (.text:ti_sysbios_heaps_HeapMem_Handle__label__S)
                  0000c75a    0000001a     sbl_per4ft.oer4ft (.text:xdc_runtime_System_aprintf__E)
                  0000c774    0000001a     sbl_per4ft.oer4ft (.text:xdc_runtime_System_printf__E)
                  0000c78e    00000002     --HOLE-- [fill = 0]
                  0000c790    00000018     rtsv7R4_T_le_v3D16_eabi.lib : args_main.obj (.text)
                  0000c7a8    00000018                                 : strcmp.obj (.text)
                  0000c7c0    00000018     sbl_per4ft.oer4ft (.text:ti_sysbios_BIOS_rtsUnlock__I)
                  0000c7d8    00000018     sbl_per4ft.oer4ft (.text:ti_sysbios_family_arm_v7r_vim_Hwi_Module__startupDone__F)
                  0000c7f0    00000018     sbl_per4ft.oer4ft (.text:ti_sysbios_family_arm_v7r_vim_Hwi_Params__init__S)
                  0000c808    00000008     --HOLE-- [fill = 0]
                  0000c810    00000018     sysbios.aer4ft : BIOS.obj (.text:ti_sysbios_family_arm_v7r_vim_Hwi_clearInterrupt__E)
                  0000c828    00000018     sbl_per4ft.oer4ft (.text:ti_sysbios_knl_Semaphore_Params__init__S)
                  0000c840    00000018     sbl_per4ft.oer4ft (.text:ti_sysbios_knl_Task_Params__init__S)
                  0000c858    00000008     --HOLE-- [fill = 0]
                  0000c860    00000018     sysbios.aer4ft : BIOS.obj (.text:ti_sysbios_knl_Task_enter__I)
                  0000c878    00000018     sbl_per4ft.oer4ft (.text:ti_sysbios_timers_rti_Timer_Module__startupDone__F)
                  0000c890    00000018     sysbios.aer4ft : BIOS.obj (.text:xdc_runtime_Error_init__E)
                  0000c8a8    00000016     rtsv7R4_T_le_v3D16_eabi.lib : strchr.obj (.text)
                  0000c8be    00000016                                 : strlen.obj (.text)
                  0000c8d4    00000016     sbl_per4ft.oer4ft (.text:ti_sysbios_BIOS_exitFunc__I)
                  0000c8ea    00000006     --HOLE-- [fill = 0]
                  0000c8f0    00000016     sysbios.aer4ft : BIOS.obj (.text:ti_sysbios_knl_Idle_loop__E)
                  0000c906    00000014     libosal_xwr68xx.aer4f : HwiP_tirtos.oer4f (.text:HwiP_Params_init)
                  0000c91a    00000002     --HOLE-- [fill = 0]
                  0000c91c    00000014     libpinmux_xwr68xx.aer4f : pinmux.oer4f (.text:Pinmux_Lock)
                  0000c930    00000014     transport.oer4f (.text:SBL_discardInput)
                  0000c944    00000014     libuart_xwr68xx.aer4f : uartsci.oer4f (.text:UartSci_disableTxDMA)
                  0000c958    00000014                           : uartsci.oer4f (.text:UartSci_enableTxDMA)
                  0000c96c    00000014     libosal_xwr68xx.aer4f : DebugP_tirtos.oer4f (.text:_DebugP_assert)
                  0000c980    00000014     rtsv7R4_T_le_v3D16_eabi.lib : _lock.obj (.text)
                  0000c994    00000014                                 : strcpy.obj (.text)
                  0000c9a8    00000014     sbl_per4ft.oer4ft (.text:ti_sysbios_heaps_HeapMem_Object__get__S)
                  0000c9bc    00000014     sbl_per4ft.oer4ft (.text:ti_sysbios_knl_Swi_Object__get__S)
                  0000c9d0    00000012     libcrc_xwr68xx.aer4f : crc.oer4f (.text:CRC_initConfigParams)
                  0000c9e2    00000012     libosal_xwr68xx.aer4f : MemoryP_tirtos.oer4f (.text:MemoryP_ctrlAlloc)
                  0000c9f4    00000012                           : SemaphoreP_tirtos.oer4f (.text:SemaphoreP_pend)
                  0000ca06    0000000a     --HOLE-- [fill = 0]
                  0000ca10    00000012     sysbios.aer4ft : BIOS.obj (.text:ti_sysbios_hal_Hwi_Module_startup__E)
                  0000ca22    00000012     sbl_per4ft.oer4ft (.text:xdc_runtime_Startup_exec__I)
                  0000ca34    00000010     libcrc_xwr68xx.aer4f : crc.oer4f (.text:CRC_getSignatureRegister)
                  0000ca44    00000010     libdma_xwr68xx.aer4f : dma.oer4f (.text:DMA_Params_init)
                  0000ca54    00000010     libqspiflash_xwr68xx.aer4f : qspiflash.oer4f (.text:QSPIFlashWriteCmd)
                  0000ca64    00000010     libqspi_xwr68xx.aer4f : qspi.oer4f (.text:QSPI_Params_init)
                  0000ca74    00000010     transport.oer4f (.text:SBL_transportRead)
                  0000ca84    0000000c     --HOLE-- [fill = 0]
                  0000ca90    00000010     sysbios.aer4ft : BIOS.obj (.text:ti_sysbios_BIOS_exit__E)
                  0000caa0    00000010                    : BIOS.obj (.text:ti_sysbios_BIOS_setThreadType__E)
                  0000cab0    00000010                    : BIOS.obj (.text:ti_sysbios_BIOS_start__E)
                  0000cac0    00000010                    : BIOS.obj (.text:ti_sysbios_gates_GateMutex_Instance_finalize__E)
                  0000cad0    00000010     sbl_per4ft.oer4ft (.text:ti_sysbios_heaps_HeapBuf_Object__get__S)
                  0000cae0    00000010     sysbios.aer4ft : BIOS.obj (.text:ti_sysbios_knl_Semaphore_Instance_finalize__E)
                  0000caf0    00000010                    : BIOS.obj (.text:ti_sysbios_knl_Swi_disable__E)
                  0000cb00    00000010     sbl_per4ft.oer4ft (.text:ti_sysbios_knl_Task_Object__get__S)
                  0000cb10    00000010     sysbios.aer4ft : BIOS.obj (.text:ti_sysbios_knl_Task_disable__E)
                  0000cb20    00000010                    : BIOS.obj (.text:xdc_runtime_Memory_free__E)
                  0000cb30    00000010     sbl_per4ft.oer4ft (.text:xdc_runtime_Text_visitRope__I)
                  0000cb40    0000000e     libosal_xwr68xx.aer4f : SemaphoreP_tirtos.oer4f (.text:SemaphoreP_delete)
                  0000cb4e    0000000e     rtsv7R4_T_le_v3D16_eabi.lib : copy_decompress_none.obj (.text:decompress:none)
                  0000cb5c    00000004     --HOLE-- [fill = 0]
                  0000cb60    0000000e     sysbios.aer4ft : BIOS.obj (.text:ti_sysbios_knl_Queue_empty__E)
                  0000cb6e    00000002     --HOLE-- [fill = 0]
                  0000cb70    0000000c                    : BIOS.obj (.text:ti_sysbios_family_arm_TaskSupport_checkStack__E)
                  0000cb7c    00000004     --HOLE-- [fill = 0]
                  0000cb80    0000000c                    : BIOS.obj (.text:ti_sysbios_family_arm_TaskSupport_getStackAlignment__E)
                  0000cb8c    00000004     --HOLE-- [fill = 0]
                  0000cb90    0000000c                    : BIOS.obj (.text:ti_sysbios_family_arm_exc_Exception_Module_startup__E)
                  0000cb9c    00000004     --HOLE-- [fill = 0]
                  0000cba0    0000000c                    : BIOS.obj (.text:ti_sysbios_family_arm_v7r_vim_Hwi_switchFromBootStack__E)
                  0000cbac    00000004     --HOLE-- [fill = 0]
                  0000cbb0    0000000c                    : BIOS.obj (.text:xdc_runtime_Startup_rtsDone__E)
                  0000cbbc    00000004     --HOLE-- [fill = 0]
                  0000cbc0    0000000c                    : BIOS.obj (.text:xdc_runtime_SysStd_exit__E)
                  0000cbcc    00000004     --HOLE-- [fill = 0]
                  0000cbd0    00000008                    : BIOS.obj (.text:ti_sysbios_gates_GateHwi_enter__E)
                  0000cbd8    00000008     --HOLE-- [fill = 0]
                  0000cbe0    00000006                    : BIOS.obj (.text:ti_sysbios_family_arm_v7r_vim_Hwi_startup__E)
                  0000cbe6    0000000a     --HOLE-- [fill = 0]
                  0000cbf0    00000006                    : BIOS.obj (.text:ti_sysbios_gates_GateHwi_leave__E)
                  0000cbf6    0000000a     --HOLE-- [fill = 0]
                  0000cc00    00000006                    : BIOS.obj (.text:ti_sysbios_heaps_HeapMem_isBlocking__E)
                  0000cc06    0000000a     --HOLE-- [fill = 0]
                  0000cc10    00000006                    : BIOS.obj (.text:ti_sysbios_knl_Queue_Instance_init__E)
                  0000cc16    0000000a     --HOLE-- [fill = 0]
                  0000cc20    00000006                    : BIOS.obj (.text:xdc_runtime_System_Module_startup__E)
                  0000cc26    0000000a     --HOLE-- [fill = 0]
                  0000cc30    00000004                    : BIOS.obj (.text:ti_sysbios_gates_GateHwi_query__E)
                  0000cc34    0000000c     --HOLE-- [fill = 0]
                  0000cc40    00000004                    : BIOS.obj (.text:ti_sysbios_gates_GateMutex_query__E)
                  0000cc44    0000000c     --HOLE-- [fill = 0]
                  0000cc50    00000004                    : BIOS.obj (.text:ti_sysbios_knl_Task_startup__E)
                  0000cc54    0000000c     --HOLE-- [fill = 0]
                  0000cc60    00000004                    : BIOS.obj (.text:ti_sysbios_timers_rti_Timer_getMaxTicks__E)
                  0000cc64    0000000c     --HOLE-- [fill = 0]
                  0000cc70    00000004                    : BIOS.obj (.text:xdc_runtime_SysStd_putch__E)
                  0000cc74    0000000c     --HOLE-- [fill = 0]
                  0000cc80    00000004                    : BIOS.obj (.text:xdc_runtime_SysStd_ready__E)
                  0000cc84    0000000c     --HOLE-- [fill = 0]
                  0000cc90    00000002                    : BIOS.obj (.text:ti_sysbios_BIOS_linkedWithIncorrectBootLibrary__E)
                  0000cc92    0000000e     --HOLE-- [fill = 0]
                  0000cca0    00000002                    : BIOS.obj (.text:ti_sysbios_gates_GateHwi_Instance_init__E)
                  0000cca2    0000000e     --HOLE-- [fill = 0]
                  0000ccb0    00000002                    : BIOS.obj (.text:ti_sysbios_knl_Clock_logTick__E)

.const     0    0000ccb8    000024e4     RUN ADDR = 08019740
                  0000ccb8    00001aee     sbl_per4ft.oer4ft (.const:xdc_runtime_Text_charTab__A)
                  0000e7a6    00000200     crc16.oer4f (.const:crc16tab)
                  0000e9a6    00000101     rtsv7R4_T_le_v3D16_eabi.lib : ctype.obj (.const:.string:_ctypes_)
                  0000eaa7    00000001     --HOLE-- [fill = 0]
                  0000eaa8    000000d0     sbl_per4ft.oer4ft (.const:xdc_runtime_Text_nodeTab__A)
                  0000eb78    00000080     sbl_per4ft.oer4ft (.const:ti_sysbios_family_arm_v7r_vim_Hwi_channelMap__A)
                  0000ebf8    00000060     libqspiflash_xwr68xx.aer4f : qspiflash.oer4f (.const:$O1$$)
                  0000ec58    00000058     sbl_per4ft.oer4ft (.const:.string)
                  0000ecb0    00000044     sbl_per4ft.oer4ft (.const:ti_sysbios_knl_Task_Object__PARAMS__C)
                  0000ecf4    0000003c     libuart_xwr68xx.aer4f : UART.oer4f (.const:UART_defaultParams)
                  0000ed30    00000030     sbl_per4ft.oer4ft (.const:ti_sysbios_family_arm_v7r_vim_Hwi_Object__PARAMS__C)
                  0000ed60    00000028     sbl_per4ft.oer4ft (.const:ti_sysbios_heaps_HeapMem_Module__FXNS__C)
                  0000ed88    00000028     sbl_per4ft.oer4ft (.const:xdc_runtime_Startup_sfxnTab__A)
                  0000edb0    00000024     sbl_per4ft.oer4ft (.const:ti_sysbios_gates_GateHwi_Module__FXNS__C)
                  0000edd4    00000024     sbl_per4ft.oer4ft (.const:ti_sysbios_gates_GateMutex_Module__FXNS__C)
                  0000edf8    00000024     sbl_per4ft.oer4ft (.const:ti_sysbios_heaps_HeapMem_Object__PARAMS__C)
                  0000ee1c    00000024     sbl_per4ft.oer4ft (.const:ti_sysbios_knl_Semaphore_Object__PARAMS__C)
                  0000ee40    00000020     sbl_per4ft.oer4ft (.const:ti_sysbios_family_arm_v7r_vim_Hwi_Object__DESC__C)
                  0000ee60    00000020     sbl_per4ft.oer4ft (.const:ti_sysbios_gates_GateHwi_Object__DESC__C)
                  0000ee80    00000020     sbl_per4ft.oer4ft (.const:ti_sysbios_gates_GateMutex_Object__DESC__C)
                  0000eea0    00000020     sbl_per4ft.oer4ft (.const:ti_sysbios_heaps_HeapMem_Object__DESC__C)
                  0000eec0    00000020     sbl_per4ft.oer4ft (.const:ti_sysbios_knl_Queue_Object__DESC__C)
                  0000eee0    00000020     sbl_per4ft.oer4ft (.const:ti_sysbios_knl_Semaphore_Object__DESC__C)
                  0000ef00    00000020     sbl_per4ft.oer4ft (.const:ti_sysbios_knl_Task_Object__DESC__C)
                  0000ef20    00000018     sbl_per4ft.oer4ft (.const:ti_sysbios_gates_GateHwi_Object__PARAMS__C)
                  0000ef38    00000018     sbl_per4ft.oer4ft (.const:ti_sysbios_gates_GateMutex_Object__PARAMS__C)
                  0000ef50    00000018     sbl_per4ft.oer4ft (.const:ti_sysbios_knl_Queue_Object__PARAMS__C)
                  0000ef68    00000014     sbl_per4ft.oer4ft (.const:xdc_runtime_Startup_sfxnRts__A)
                  0000ef7c    00000010     libqspi_xwr68xx.aer4f : qspi.oer4f (.const:QSPI_defaultParams)
                  0000ef8c    00000010     sbl_per4ft.oer4ft (.const:ti_sysbios_family_arm_v7r_vim_Hwi_intReqEnaSet__A)
                  0000ef9c    00000010     sbl_per4ft.oer4ft (.const:ti_sysbios_family_arm_v7r_vim_Hwi_wakeEnaSet__A)
                  0000efac    00000008     sbl_per4ft.oer4ft (.const:ti_sysbios_knl_Idle_funcList__C)
                  0000efb4    00000008     sbl_per4ft.oer4ft (.const:xdc_runtime_Startup_firstFxns__A)
                  0000efbc    00000008     sbl_per4ft.oer4ft (.const:xdc_runtime_Startup_firstFxns__C)
                  0000efc4    00000008     sbl_per4ft.oer4ft (.const:xdc_runtime_Startup_lastFxns__C)
                  0000efcc    00000004     sbl_per4ft.oer4ft (.const:ti_sysbios_family_arm_TaskSupport_stackAlignment__C)
                  0000efd0    00000004     sbl_per4ft.oer4ft (.const:ti_sysbios_family_arm_exc_Exception_E_dataAbort__C)
                  0000efd4    00000004     sbl_per4ft.oer4ft (.const:ti_sysbios_family_arm_exc_Exception_E_prefetchAbort__C)
                  0000efd8    00000004     sbl_per4ft.oer4ft (.const:ti_sysbios_family_arm_exc_Exception_E_swi__C)
                  0000efdc    00000004     sbl_per4ft.oer4ft (.const:ti_sysbios_family_arm_exc_Exception_E_undefinedInstruction__C)
                  0000efe0    00000004     sbl_per4ft.oer4ft (.const:ti_sysbios_family_arm_exc_Exception_excHookFuncs__A)
                  0000efe4    00000004     sbl_per4ft.oer4ft (.const:ti_sysbios_family_arm_exc_Exception_excHookFuncs__C)
                  0000efe8    00000004     sbl_per4ft.oer4ft (.const:ti_sysbios_family_arm_v7r_tms570_Core_E_mismatchedIds__C)
                  0000efec    00000004     sbl_per4ft.oer4ft (.const:ti_sysbios_family_arm_v7r_tms570_Core_id__C)
                  0000eff0    00000004     sbl_per4ft.oer4ft (.const:ti_sysbios_family_arm_v7r_vim_Hwi_A_badChannelId__C)
                  0000eff4    00000004     sbl_per4ft.oer4ft (.const:ti_sysbios_family_arm_v7r_vim_Hwi_E_alreadyDefined__C)
                  0000eff8    00000004     sbl_per4ft.oer4ft (.const:ti_sysbios_family_arm_v7r_vim_Hwi_E_badIntNum__C)
                  0000effc    00000004     sbl_per4ft.oer4ft (.const:ti_sysbios_family_arm_v7r_vim_Hwi_E_phantomInterrupt__C)
                  0000f000    00000004     sbl_per4ft.oer4ft (.const:ti_sysbios_family_arm_v7r_vim_Hwi_E_undefined__C)
                  0000f004    00000004     sbl_per4ft.oer4ft (.const:ti_sysbios_family_arm_v7r_vim_Hwi_E_unsupportedMaskingOption__C)
                  0000f008    00000004     sbl_per4ft.oer4ft (.const:ti_sysbios_family_arm_v7r_vim_Hwi_Module__diagsEnabled__C)
                  0000f00c    00000004     sbl_per4ft.oer4ft (.const:ti_sysbios_family_arm_v7r_vim_Hwi_Module__diagsIncluded__C)
                  0000f010    00000004     sbl_per4ft.oer4ft (.const:ti_sysbios_family_arm_v7r_vim_Hwi_Module__diagsMask__C)
                  0000f014    00000004     sbl_per4ft.oer4ft (.const:ti_sysbios_family_arm_v7r_vim_Hwi_NUM_INTERRUPTS__C)
                  0000f018    00000004     sbl_per4ft.oer4ft (.const:ti_sysbios_family_arm_v7r_vim_Hwi_channelMap__C)
                  0000f01c    00000004     sbl_per4ft.oer4ft (.const:ti_sysbios_family_arm_v7r_vim_Hwi_intReqEnaSet__C)
                  0000f020    00000004     sbl_per4ft.oer4ft (.const:ti_sysbios_family_arm_v7r_vim_Hwi_phantomFunc__C)
                  0000f024    00000004     sbl_per4ft.oer4ft (.const:ti_sysbios_family_arm_v7r_vim_Hwi_swiDisable__C)
                  0000f028    00000004     sbl_per4ft.oer4ft (.const:ti_sysbios_family_arm_v7r_vim_Hwi_swiRestoreHwi__C)
                  0000f02c    00000004     sbl_per4ft.oer4ft (.const:ti_sysbios_family_arm_v7r_vim_Hwi_taskDisable__C)
                  0000f030    00000004     sbl_per4ft.oer4ft (.const:ti_sysbios_family_arm_v7r_vim_Hwi_taskRestoreHwi__C)
                  0000f034    00000004     sbl_per4ft.oer4ft (.const:ti_sysbios_family_arm_v7r_vim_Hwi_wakeEnaSet__C)
                  0000f038    00000004     sbl_per4ft.oer4ft (.const:ti_sysbios_gates_GateMutex_A_badContext__C)
                  0000f03c    00000004     sbl_per4ft.oer4ft (.const:ti_sysbios_gates_GateMutex_Instance_State_sem__O)
                  0000f040    00000004     sbl_per4ft.oer4ft (.const:ti_sysbios_gates_GateMutex_Module__diagsEnabled__C)
                  0000f044    00000004     sbl_per4ft.oer4ft (.const:ti_sysbios_gates_GateMutex_Module__diagsIncluded__C)
                  0000f048    00000004     sbl_per4ft.oer4ft (.const:ti_sysbios_gates_GateMutex_Module__diagsMask__C)
                  0000f04c    00000004     sbl_per4ft.oer4ft (.const:ti_sysbios_hal_Hwi_E_stackOverflow__C)
                  0000f050    00000004     sbl_per4ft.oer4ft (.const:ti_sysbios_heaps_HeapBuf_Instance_State_freeList__O)
                  0000f054    00000004     sbl_per4ft.oer4ft (.const:ti_sysbios_heaps_HeapBuf_Object__count__C)
                  0000f058    00000004     sbl_per4ft.oer4ft (.const:ti_sysbios_heaps_HeapBuf_numConstructedHeaps__C)
                  0000f05c    00000004     sbl_per4ft.oer4ft (.const:ti_sysbios_heaps_HeapMem_A_align__C)
                  0000f060    00000004     sbl_per4ft.oer4ft (.const:ti_sysbios_heaps_HeapMem_A_heapSize__C)
                  0000f064    00000004     sbl_per4ft.oer4ft (.const:ti_sysbios_heaps_HeapMem_A_invalidFree__C)
                  0000f068    00000004     sbl_per4ft.oer4ft (.const:ti_sysbios_heaps_HeapMem_A_zeroBlock__C)
                  0000f06c    00000004     sbl_per4ft.oer4ft (.const:ti_sysbios_heaps_HeapMem_E_memory__C)
                  0000f070    00000004     sbl_per4ft.oer4ft (.const:ti_sysbios_heaps_HeapMem_Module__diagsEnabled__C)
                  0000f074    00000004     sbl_per4ft.oer4ft (.const:ti_sysbios_heaps_HeapMem_Module__diagsIncluded__C)
                  0000f078    00000004     sbl_per4ft.oer4ft (.const:ti_sysbios_heaps_HeapMem_Module__diagsMask__C)
                  0000f07c    00000004     sbl_per4ft.oer4ft (.const:ti_sysbios_heaps_HeapMem_Module__gateObj__C)
                  0000f080    00000004     sbl_per4ft.oer4ft (.const:ti_sysbios_heaps_HeapMem_Object__count__C)
                  0000f084    00000004     sbl_per4ft.oer4ft (.const:ti_sysbios_heaps_HeapMem_reqAlign__C)
                  0000f088    00000004     sbl_per4ft.oer4ft (.const:ti_sysbios_knl_Clock_Module_State_clockQ__O)
                  0000f08c    00000004     sbl_per4ft.oer4ft (.const:ti_sysbios_knl_Idle_funcList__A)
                  0000f090    00000004     sbl_per4ft.oer4ft (.const:ti_sysbios_knl_Semaphore_A_badContext__C)
                  0000f094    00000004     sbl_per4ft.oer4ft (.const:ti_sysbios_knl_Semaphore_A_noEvents__C)
                  0000f098    00000004     sbl_per4ft.oer4ft (.const:ti_sysbios_knl_Semaphore_A_overflow__C)
                  0000f09c    00000004     sbl_per4ft.oer4ft (.const:ti_sysbios_knl_Semaphore_A_pendTaskDisabled__C)
                  0000f0a0    00000004     sbl_per4ft.oer4ft (.const:ti_sysbios_knl_Semaphore_Instance_State_pendQ__O)
                  0000f0a4    00000004     sbl_per4ft.oer4ft (.const:ti_sysbios_knl_Semaphore_Module__diagsEnabled__C)
                  0000f0a8    00000004     sbl_per4ft.oer4ft (.const:ti_sysbios_knl_Semaphore_Module__diagsIncluded__C)
                  0000f0ac    00000004     sbl_per4ft.oer4ft (.const:ti_sysbios_knl_Semaphore_Module__diagsMask__C)
                  0000f0b0    00000004     sbl_per4ft.oer4ft (.const:ti_sysbios_knl_Swi_Object__count__C)
                  0000f0b4    00000004     sbl_per4ft.oer4ft (.const:ti_sysbios_knl_Task_A_badPriority__C)
                  0000f0b8    00000004     sbl_per4ft.oer4ft (.const:ti_sysbios_knl_Task_A_badTaskState__C)
                  0000f0bc    00000004     sbl_per4ft.oer4ft (.const:ti_sysbios_knl_Task_A_badThreadType__C)
                  0000f0c0    00000004     sbl_per4ft.oer4ft (.const:ti_sysbios_knl_Task_A_noPendElem__C)
                  0000f0c4    00000004     sbl_per4ft.oer4ft (.const:ti_sysbios_knl_Task_E_spOutOfBounds__C)
                  0000f0c8    00000004     sbl_per4ft.oer4ft (.const:ti_sysbios_knl_Task_E_stackOverflow__C)
                  0000f0cc    00000004     sbl_per4ft.oer4ft (.const:ti_sysbios_knl_Task_Module_State_inactiveQ__O)
                  0000f0d0    00000004     sbl_per4ft.oer4ft (.const:ti_sysbios_knl_Task_Module__diagsEnabled__C)
                  0000f0d4    00000004     sbl_per4ft.oer4ft (.const:ti_sysbios_knl_Task_Module__diagsIncluded__C)
                  0000f0d8    00000004     sbl_per4ft.oer4ft (.const:ti_sysbios_knl_Task_Module__diagsMask__C)
                  0000f0dc    00000004     sbl_per4ft.oer4ft (.const:ti_sysbios_knl_Task_Object__count__C)
                  0000f0e0    00000004     sbl_per4ft.oer4ft (.const:ti_sysbios_knl_Task_allBlockedFunc__C)
                  0000f0e4    00000004     sbl_per4ft.oer4ft (.const:ti_sysbios_knl_Task_defaultStackHeap__C)
                  0000f0e8    00000004     sbl_per4ft.oer4ft (.const:ti_sysbios_knl_Task_defaultStackSize__C)
                  0000f0ec    00000004     sbl_per4ft.oer4ft (.const:ti_sysbios_knl_Task_numConstructedTasks__C)
                  0000f0f0    00000004     sbl_per4ft.oer4ft (.const:ti_sysbios_timers_rti_Timer_E_cannotSupport__C)
                  0000f0f4    00000004     sbl_per4ft.oer4ft (.const:ti_sysbios_timers_rti_Timer_Module__diagsEnabled__C)
                  0000f0f8    00000004     sbl_per4ft.oer4ft (.const:ti_sysbios_timers_rti_Timer_Module__diagsIncluded__C)
                  0000f0fc    00000004     sbl_per4ft.oer4ft (.const:ti_sysbios_timers_rti_Timer_Module__diagsMask__C)
                  0000f100    00000004     sbl_per4ft.oer4ft (.const:ti_sysbios_timers_rti_Timer_numTimerDevices__C)
                  0000f104    00000004     sbl_per4ft.oer4ft (.const:ti_sysbios_timers_rti_Timer_startupNeeded__C)
                  0000f108    00000004     sbl_per4ft.oer4ft (.const:xdc_runtime_Assert_E_assertFailed__C)
                  0000f10c    00000004     sbl_per4ft.oer4ft (.const:xdc_runtime_Core_A_initializedParams__C)
                  0000f110    00000004     sbl_per4ft.oer4ft (.const:xdc_runtime_Core_Module__diagsEnabled__C)
                  0000f114    00000004     sbl_per4ft.oer4ft (.const:xdc_runtime_Core_Module__diagsIncluded__C)
                  0000f118    00000004     sbl_per4ft.oer4ft (.const:xdc_runtime_Core_Module__diagsMask__C)
                  0000f11c    00000004     sbl_per4ft.oer4ft (.const:xdc_runtime_Error_E_memory__C)
                  0000f120    00000004     sbl_per4ft.oer4ft (.const:xdc_runtime_Error_policyFxn__C)
                  0000f124    00000004     sbl_per4ft.oer4ft (.const:xdc_runtime_Error_policy__C)
                  0000f128    00000004     sbl_per4ft.oer4ft (.const:xdc_runtime_Error_raiseHook__C)
                  0000f12c    00000004     sbl_per4ft.oer4ft (.const:xdc_runtime_IGateProvider_Interface__BASE__C)
                  0000f130    00000004     sbl_per4ft.oer4ft (.const:xdc_runtime_IHeap_Interface__BASE__C)
                  0000f134    00000004     sbl_per4ft.oer4ft (.const:xdc_runtime_IModule_Interface__BASE__C)
                  0000f138    00000004     sbl_per4ft.oer4ft (.const:xdc_runtime_Memory_defaultHeapInstance__C)
                  0000f13c    00000004     sbl_per4ft.oer4ft (.const:xdc_runtime_Startup_execImpl__C)
                  0000f140    00000004     sbl_per4ft.oer4ft (.const:xdc_runtime_Startup_maxPasses__C)
                  0000f144    00000004     sbl_per4ft.oer4ft (.const:xdc_runtime_Startup_sfxnRts__C)
                  0000f148    00000004     sbl_per4ft.oer4ft (.const:xdc_runtime_Startup_sfxnTab__C)
                  0000f14c    00000004     sbl_per4ft.oer4ft (.const:xdc_runtime_System_Module__gateObj__C)
                  0000f150    00000004     sbl_per4ft.oer4ft (.const:xdc_runtime_System_abortFxn__C)
                  0000f154    00000004     sbl_per4ft.oer4ft (.const:xdc_runtime_System_exitFxn__C)
                  0000f158    00000004     sbl_per4ft.oer4ft (.const:xdc_runtime_System_extendFxn__C)
                  0000f15c    00000004     sbl_per4ft.oer4ft (.const:xdc_runtime_System_maxAtexitHandlers__C)
                  0000f160    00000004     sbl_per4ft.oer4ft (.const:xdc_runtime_Text_charTab__C)
                  0000f164    00000004     sbl_per4ft.oer4ft (.const:xdc_runtime_Text_nameEmpty__C)
                  0000f168    00000004     sbl_per4ft.oer4ft (.const:xdc_runtime_Text_nameStatic__C)
                  0000f16c    00000004     sbl_per4ft.oer4ft (.const:xdc_runtime_Text_nameUnknown__C)
                  0000f170    00000004     sbl_per4ft.oer4ft (.const:xdc_runtime_Text_nodeTab__C)
                  0000f174    00000004     sbl_per4ft.oer4ft (.const:xdc_runtime_Text_visitRopeFxn__C)
                  0000f178    00000002     sbl_per4ft.oer4ft (.const:ti_sysbios_family_arm_exc_Exception_Module__id__C)
                  0000f17a    00000002     sbl_per4ft.oer4ft (.const:ti_sysbios_family_arm_v7r_tms570_Core_Module__id__C)
                  0000f17c    00000002     sbl_per4ft.oer4ft (.const:ti_sysbios_family_arm_v7r_vim_Hwi_Module__id__C)
                  0000f17e    00000002     sbl_per4ft.oer4ft (.const:ti_sysbios_gates_GateMutex_Module__id__C)
                  0000f180    00000002     sbl_per4ft.oer4ft (.const:ti_sysbios_hal_Hwi_Module__id__C)
                  0000f182    00000002     sbl_per4ft.oer4ft (.const:ti_sysbios_heaps_HeapMem_Module__id__C)
                  0000f184    00000002     sbl_per4ft.oer4ft (.const:ti_sysbios_knl_Semaphore_Module__id__C)
                  0000f186    00000002     sbl_per4ft.oer4ft (.const:ti_sysbios_knl_Task_Module__id__C)
                  0000f188    00000002     sbl_per4ft.oer4ft (.const:ti_sysbios_timers_rti_Timer_Module__id__C)
                  0000f18a    00000002     sbl_per4ft.oer4ft (.const:ti_sysbios_timers_rti_Timer_continueOnSuspend__C)
                  0000f18c    00000002     sbl_per4ft.oer4ft (.const:xdc_runtime_Core_Module__id__C)
                  0000f18e    00000002     sbl_per4ft.oer4ft (.const:xdc_runtime_Error_maxDepth__C)
                  0000f190    00000002     sbl_per4ft.oer4ft (.const:xdc_runtime_Main_Module__id__C)
                  0000f192    00000002     sbl_per4ft.oer4ft (.const:xdc_runtime_Memory_Module__id__C)
                  0000f194    00000002     sbl_per4ft.oer4ft (.const:xdc_runtime_Text_charCnt__C)
                  0000f196    00000002     sbl_per4ft.oer4ft (.const:xdc_runtime_Text_isLoaded__C)
                  0000f198    00000002     sbl_per4ft.oer4ft (.const:xdc_runtime_Text_registryModsLastId__C)
                  0000f19a    00000002     sbl_per4ft.oer4ft (.const:xdc_runtime_Text_unnamedModsLastId__C)

.cinit     0    0000f288    00000340     
                  0000f288    000002fa     (.cinit..data.load) [load image, compression = lzss]
                  0000f582    00000002     --HOLE-- [fill = 0]
                  0000f584    0000000c     (__TI_handler_table)
                  0000f590    00000008     (.cinit..bss.load) [load image, compression = zero_init]
                  0000f598    00000008     (.cinit..myFiqStack.load) [load image, compression = zero_init]
                  0000f5a0    00000008     (.cinit.systemHeap.load) [load image, compression = zero_init]
                  0000f5a8    00000020     (__TI_cinit_table)

_appVecs   0    00000000    00000000     UNINITIALIZED

tcmalibs   0    0000f1a0    000000e8     
                  0000f1a0    00000034     main.oer4f (.text:_system_pre_init)
                  0000f1d4    00000014     main.oer4f (.text:copyCode)
                  0000f1e8    0000000a     main.oer4f (.text:main)
                  0000f1f2    00000002     --HOLE-- [fill = 0]
                  0000f1f4    00000008     sbl.oer4f (.tramp.SBL_init.1)
                  0000f1fc    00000074     boot.aer4ft : boot.oer4ft (.text)
                  0000f270    00000008     sysbios.aer4ft : BIOS.obj (.tramp.xdc_runtime_System_exit__E.1)
                  0000f278    00000008     rtsv7R4_T_le_v3D16_eabi.lib : args_main.obj (.tramp._args_main.1)
                  0000f280    00000008     auto_init.aer4ft : auto_init.oer4ft (.tramp.__TI_auto_init.1)

systemHeap 
*          0    0800cbb8    00008000     UNINITIALIZED
                  0800cbb8    00008000     sbl_per4ft.oer4ft (systemHeap)

.bss       0    08014bc0    00004b80     UNINITIALIZED
                  08014bc0    00001998     (.common:gSblMCB)
                  08016558    00000008     (.common:gDMADriverPtr)
                  08016560    00000008     (.common:parmbuf)
                  08016568    00000018     --HOLE--
                  08016580    00001000     (.common:dataBuff)
                  08017580    00001000     (.common:ti_sysbios_family_arm_exc_Exception_Module_State_0_excStack_0__A)
                  08018580    00000800     sbl_per4ft.oer4ft (.bss:taskStackSection)
                  08018d80    00000800     (.common:imageChunk)
                  08019580    00000120     rtsv7R4_T_le_v3D16_eabi.lib : trgmsg.obj (.bss:_CIOBUF_)
                  080196a0    000000a0     (.common:__TI_tmpnams)

.stack     0    0801bc40    00001000     UNINITIALIZED
                  0801bc40    00001000     --HOLE--

.data      0    0801cc40    00000a54     UNINITIALIZED
                  0801cc40    00000200     sbl_per4ft.oer4ft (.data:ti_sysbios_family_arm_v7r_vim_Hwi_Module_State_0_dispatchTable__A)
                  0801ce40    000000f0     rtsv7R4_T_le_v3D16_eabi.lib : defs.obj (.data:_ftable)
                  0801cf30    00000010     libdma_xwr68xx.aer4f : dma.oer4f (.data:DMA_defaultParams)
                  0801cf40    000000c0     metaheader_parser.oer4f (.data:metaHeaderLcl)
                  0801d000    00000080     sbl_per4ft.oer4ft (.data:ti_sysbios_knl_Swi_Module_State_0_readyQ__A)
                  0801d080    00000080     sbl_per4ft.oer4ft (.data:ti_sysbios_knl_Task_Module_State_0_readyQ__A)
                  0801d100    00000078     rtsv7R4_T_le_v3D16_eabi.lib : write.obj (.data:_device)
                  0801d178    00000060     libdma_xwr68xx.aer4f : dma_xwr68xx.oer4f (.data:gDMAHwCfg)
                  0801d1d8    0000005c     sbl_per4ft.oer4ft (.data:ti_sysbios_knl_Task_Object__table__V)
                  0801d234    00000058     libuart_xwr68xx.aer4f : uart_xwr68xx.oer4f (.data:gUartSciHwCfg)
                  0801d28c    00000050     rtsv7R4_T_le_v3D16_eabi.lib : write.obj (.data:_stream)
                  0801d2dc    00000048     sbl_per4ft.oer4ft (.data:ti_sysbios_knl_Task_Module__state__V)
                  0801d324    00000040     sbl_per4ft.oer4ft (.data:ti_sysbios_gates_GateMutex_Object__table__V)
                  0801d364    0000003c     sbl_per4ft.oer4ft (.data:ti_sysbios_timers_rti_Timer_Object__table__V)
                  0801d3a0    00000034     sbl_per4ft.oer4ft (.data:ti_sysbios_family_arm_v7r_vim_Hwi_Module__state__V)
                  0801d3d4    00000030     sbl_per4ft.oer4ft (.data:ti_sysbios_knl_Swi_Object__table__V)
                  0801d404    0000002c     sbl_per4ft.oer4ft (.data:ti_sysbios_family_arm_v7r_vim_Hwi_Object__table__V)
                  0801d430    0000002c     sbl_per4ft.oer4ft (.data:ti_sysbios_knl_Clock_Module__state__V)
                  0801d45c    00000028     libuart_xwr68xx.aer4f : uartsci.oer4f (.data:gUartSciFxnTable)
                  0801d484    00000024                           : uart_xwr68xx.oer4f (.data:UART_config)
                  0801d4a8    00000024     sbl_per4ft.oer4ft (.data:ti_sysbios_BIOS_Module__state__V)
                  0801d4cc    00000004     libqspiflash_xwr68xx.aer4f : qspiflash_xwr68xx.oer4f (.data:gQSPIFlashHwCfg)
                  0801d4d0    00000020     libsoc_xwr68xx.aer4f : soc_xwr68xx_mss.oer4f (.data:gSOCHwAttrib)
                  0801d4f0    00000020     sbl_per4ft.oer4ft (.data:xdc_runtime_Error_IgnoreBlock)
                  0801d510    00000020     sbl_per4ft.oer4ft (.data:xdc_runtime_System_Module_State_0_atexitHandlers__A)
                  0801d530    0000001c     sbl_per4ft.oer4ft (.data:ti_sysbios_knl_Swi_Module__state__V)
                  0801d54c    00000018     sbl_per4ft.oer4ft (.data:ti_sysbios_heaps_HeapMem_Object__table__V)
                  0801d564    00000018     sbl_per4ft.oer4ft (.data:ti_sysbios_timers_rti_Timer_Module_State_0_device__A)
                  0801d57c    00000014     sbl_per4ft.oer4ft (.data:ti_sysbios_family_arm_exc_Exception_Module__state__V)
                  0801d590    00000010     libqspi_xwr68xx.aer4f : qspi_xwr68xx.oer4f (.data:gQSPIHwCfg)
                  0801d5a0    00000010     rtsv7R4_T_le_v3D16_eabi.lib : defs.obj (.data)
                  0801d5b0    00000010     sbl_per4ft.oer4ft (.data:ti_sysbios_timers_rti_Timer_Module_State_0_intFreqs__A)
                  0801d5c0    00000010     sbl_per4ft.oer4ft (.data:ti_sysbios_timers_rti_Timer_Module__state__V)
                  0801d5d0    0000000c     rtsv7R4_T_le_v3D16_eabi.lib : exit.obj (.data:$O1$$)
                  0801d5dc    00000008                                 : _lock.obj (.data:$O1$$)
                  0801d5e4    00000008     libqspiflash_xwr68xx.aer4f : qspiflash_device_macronix.oer4f (.data:QSPIFlash_deviceFxnTbl_macronix)
                  0801d5ec    00000008                                : qspiflash_device_spansion.oer4f (.data:QSPIFlash_deviceFxnTbl_spansion)
                  0801d5f4    00000008     sbl_per4ft.oer4ft (.data:ti_sysbios_family_arm_v7r_vim_Hwi_Module__root__V)
                  0801d5fc    00000008     sbl_per4ft.oer4ft (.data:ti_sysbios_gates_GateHwi_Module__root__V)
                  0801d604    00000008     sbl_per4ft.oer4ft (.data:ti_sysbios_gates_GateMutex_Module__root__V)
                  0801d60c    00000008     sbl_per4ft.oer4ft (.data:ti_sysbios_hal_Hwi_Object__table__V)
                  0801d614    00000008     sbl_per4ft.oer4ft (.data:ti_sysbios_heaps_HeapMem_Module__root__V)
                  0801d61c    00000008     sbl_per4ft.oer4ft (.data:ti_sysbios_knl_Queue_Module__root__V)
                  0801d624    00000008     sbl_per4ft.oer4ft (.data:ti_sysbios_knl_Semaphore_Module__root__V)
                  0801d62c    00000008     sbl_per4ft.oer4ft (.data:ti_sysbios_knl_Task_Module__root__V)
                  0801d634    00000008     sbl_per4ft.oer4ft (.data:ti_sysbios_timers_rti_Timer_Module_State_0_handles__A)
                  0801d63c    00000008     sbl_per4ft.oer4ft (.data:xdc_runtime_Registry_Module__state__V)
                  0801d644    00000008     sbl_per4ft.oer4ft (.data:xdc_runtime_Startup_Module__state__V)
                  0801d64c    00000008     sbl_per4ft.oer4ft (.data:xdc_runtime_System_Module__state__V)
                  0801d654    00000004     libcrc_xwr68xx.aer4f : crc_xwr68xx.oer4f (.data)
                  0801d658    00000004     libpinmux_xwr68xx.aer4f : pinmux_xwr1xxx.oer4f (.data)
                  0801d65c    00000004     libqspi_xwr68xx.aer4f : qspi.oer4f (.data)
                  0801d660    00000004     libuart_xwr68xx.aer4f : UART.oer4f (.data)
                  0801d664    00000004     rtsv7R4_T_le_v3D16_eabi.lib : errno.obj (.data)
                  0801d668    00000004                                 : fopen.obj (.data)
                  0801d66c    00000004                                 : open.obj (.data)
                  0801d670    00000004                                 : stkdepth_vars.obj (.data)
                  0801d674    00000004     sbl_per4ft.oer4ft (.data:ti_sysbios_family_arm_exc_Exception_Module_State_0_excContext__A)
                  0801d678    00000004     sbl_per4ft.oer4ft (.data:ti_sysbios_family_arm_exc_Exception_Module_State_0_excStackBuffers__A)
                  0801d67c    00000004     sbl_per4ft.oer4ft (.data:ti_sysbios_family_arm_exc_Exception_Module_State_0_excStack__A)
                  0801d680    00000004     sbl_per4ft.oer4ft (.data:ti_sysbios_gates_GateHwi_Object__table__V)
                  0801d684    00000004     sbl_per4ft.oer4ft (.data:ti_sysbios_heaps_HeapBuf_Module__state__V)
                  0801d688    00000004     sbl_per4ft.oer4ft (.data:ti_sysbios_knl_Task_Module_State_0_idleTask__A)
                  0801d68c    00000004     sbl_per4ft.oer4ft (.data:xdc_runtime_Memory_Module__state__V)
                  0801d690    00000002     sbl_per4ft.oer4ft (.data:ti_sysbios_family_arm_exc_Exception_Module_State_0_excActive__A)
                  0801d692    00000002     sbl_per4ft.oer4ft (.data:xdc_runtime_Error_Module__state__V)

MODULE SUMMARY

       Module                            code     ro data   rw data
       ------                            ----     -------   -------
    /home/gtbldadm/nightlybuilds/mmwave_sdk/ti/utils/sbl/mss_configPkg_xwr68xx/package/cfg/
       sbl_per4ft.oer4ft                 3496     17064     42560  
    +--+---------------------------------+--------+---------+---------+
       Total:                            3496     17064     42560  
                                                                   
    obj_xwr68xx/
       sbl.oer4f                         4956     0         10648  
       image_validity.oer4f              4038     0         0      
       multicoreimage_parser.oer4f       936      0         2048   
       image_parser.oer4f                2240     0         0      
       transport.oer4f                   2176     0         0      
       metaheader_parser.oer4f           1928     0         192    
       sbl_xwr68xx.oer4f                 1720     0         0      
       crc16.oer4f                       88       1024      0      
       buffer_mgmt.oer4f                 496      0         0      
       main.oer4f                        98       0         0      
    +--+---------------------------------+--------+---------+---------+
       Total:                            18676    1024      12888  
                                                                   
    /home/gtbldadm/nightlybuilds/mmwave_sdk/scripts/jenkins/../../ti/drivers/crc/lib/libcrc_xwr68xx.aer4f
       crc.oer4f                         2600     0         0      
       crc_xwr68xx.oer4f                 0        0         4      
    +--+---------------------------------+--------+---------+---------+
       Total:                            2600     0         4      
                                                                   
    /home/gtbldadm/nightlybuilds/mmwave_sdk/scripts/jenkins/../../ti/drivers/dma/lib/libdma_xwr68xx.aer4f
       dma.oer4f                         6712     0         16     
       dma_xwr68xx.oer4f                 0        0         104    
    +--+---------------------------------+--------+---------+---------+
       Total:                            6712     0         120    
                                                                   
    /home/gtbldadm/nightlybuilds/mmwave_sdk/scripts/jenkins/../../ti/drivers/osal/lib/libosal_xwr68xx.aer4f
       HwiP_tirtos.oer4f                 444      0         0      
       SemaphoreP_tirtos.oer4f           300      0         0      
       MemoryP_tirtos.oer4f              56       0         0      
       DebugP_tirtos.oer4f               40       0         0      
    +--+---------------------------------+--------+---------+---------+
       Total:                            840      0         0      
                                                                   
    /home/gtbldadm/nightlybuilds/mmwave_sdk/scripts/jenkins/../../ti/drivers/pinmux/lib/libpinmux_xwr68xx.aer4f
       pinmux.oer4f                      780      0         0      
       pinmux_xwr1xxx.oer4f              0        0         4      
    +--+---------------------------------+--------+---------+---------+
       Total:                            780      0         4      
                                                                   
    /home/gtbldadm/nightlybuilds/mmwave_sdk/scripts/jenkins/../../ti/drivers/qspi/lib/libqspi_xwr68xx.aer4f
       qspi.oer4f                        1758     32        4      
       qspi_xwr68xx.oer4f                0        0         16     
    +--+---------------------------------+--------+---------+---------+
       Total:                            1758     32        20     
                                                                   
    /home/gtbldadm/nightlybuilds/mmwave_sdk/scripts/jenkins/../../ti/drivers/qspiflash/lib/libqspiflash_xwr68xx.aer4f
       qspiflash.oer4f                   4360     192       0      
       qspiflash_device_macronix.oer4f   472      0         8      
       qspiflash_device_spansion.oer4f   440      0         8      
       qspiflash_xwr68xx.oer4f           0        0         4      
    +--+---------------------------------+--------+---------+---------+
       Total:                            5272     192       20     
                                                                   
    /home/gtbldadm/nightlybuilds/mmwave_sdk/scripts/jenkins/../../ti/drivers/soc/lib/libsoc_xwr68xx.aer4f
       soc_xwr68xx_mss.oer4f             2988     0         32     
       soc_xwr68xx.oer4f                 876      0         0      
       soc.oer4f                         760      0         0      
       soc_mpu.o                         364      0         0      
    +--+---------------------------------+--------+---------+---------+
       Total:                            4988     0         32     
                                                                   
    /home/gtbldadm/nightlybuilds/mmwave_sdk/scripts/jenkins/../../ti/drivers/uart/lib/libuart_xwr68xx.aer4f
       uartsci.oer4f                     4384     0         40     
       uartsci_dma.oer4f                 1284     0         0      
       UART.oer4f                        300      120       4      
       uart_xwr68xx.oer4f                0        0         124    
    +--+---------------------------------+--------+---------+---------+
       Total:                            5968     120       168    
                                                                   
    /home/gtbldadm/nightlybuilds/mmwave_sdk/ti/utils/sbl/mss_configPkg_xwr68xx/package/cfg/sbl_per4ft.src/sysbios/sysbios.aer4ft
       BIOS.obj                          30878    0         0      
       exc_Exception_asm.obj             616      0         0      
       vim_Hwi_asm.obj                   416      0         0      
       arm_TaskSupport_asm.obj           360      0         0      
       vim_Hwi_asm_switch.obj            304      0         0      
       arm_IntrinsicsSupport_asm.obj     24       0         0      
       tms570_Core_asm.obj               20       0         0      
    +--+---------------------------------+--------+---------+---------+
       Total:                            32618    0         0      
                                                                   
    /opt/ti/bios_6_73_01_01/packages/ti/targets/arm/rtsarm/lib/auto_init.aer4ft
       auto_init.oer4ft                  328      0         0      
    +--+---------------------------------+--------+---------+---------+
       Total:                            328      0         0      
                                                                   
    /opt/ti/bios_6_73_01_01/packages/ti/targets/arm/rtsarm/lib/boot.aer4ft
       boot.oer4ft                       116      0         0      
    +--+---------------------------------+--------+---------+---------+
       Total:                            116      0         0      
                                                                   
    /opt/ti/ti-cgt-arm_16.9.6.LTS/lib/rtsv7R4_T_le_v3D16_eabi.lib
       _printfi.obj                      8436     0         0      
       ull_div32.obj                     1392     0         0      
       fopen.obj                         912      0         4      
       fputs.obj                         624      0         0      
       ctype.obj                         0        514       0      
       trgmsg.obj                        216      0         288    
       s_scalbn.obj                      472      0         0      
       setvbuf.obj                       440      0         0      
       defs.obj                          0        0         416    
       fflush.obj                        408      0         0      
       open.obj                          376      0         4      
       _io_perm.obj                      348      0         0      
       memcpy_t2.obj                     312      0         0      
       fclose.obj                        304      0         0      
       fputc.obj                         304      0         0      
       write.obj                         80       0         200    
       vsnprintf.obj                     272      0         0      
       memset_t2.obj                     244      0         0      
       getdevice.obj                     232      0         0      
       s_frexp.obj                       232      0         0      
       printf.obj                        224      0         0      
       copy_decompress_lzss.obj          216      0         0      
       hostlseek.obj                     208      0         0      
       hostrename.obj                    208      0         0      
       fseek.obj                         200      0         0      
       hostopen.obj                      184      0         8      
       hostread.obj                      184      0         0      
       close.obj                         176      0         0      
       hostwrite.obj                     176      0         0      
       exit.obj                          160      0         12     
       ltoa.obj                          168      0         0      
       atoi.obj                          160      0         0      
       u_div32.obj                       160      0         0      
       cpy_tbl.obj                       152      0         0      
       hostclose.obj                     136      0         0      
       hostunlink.obj                    136      0         0      
       strncpy.obj                       108      0         0      
       unlink.obj                        88       0         0      
       lseek.obj                         80       0         0      
       memchr.obj                        64       0         0      
       args_main.obj                     56       0         0      
       memccpy.obj                       56       0         0      
       s_copysign.obj                    52       0         0      
       _lock.obj                         40       0         8      
       strcmp.obj                        48       0         0      
       strchr.obj                        44       0         0      
       strlen.obj                        44       0         0      
       strcpy.obj                        40       0         0      
       copy_decompress_none.obj          28       0         0      
       copy_zero_init.obj                24       0         0      
       errno.obj                         0        0         4      
       i_div0.obj                        4        0         0      
       stkdepth_vars.obj                 0        0         4      
    +--+---------------------------------+--------+---------+---------+
       Total:                            19228    514       948    
                                                                   
       Stack:                            0        0         4096   
       Linker Generated:                 0        830       0      
    +--+---------------------------------+--------+---------+---------+
       Grand Total:                      103380   19776     60860  


LINKER GENERATED COPY TABLES

__TI_cinit_table @ 0000f5a8 records: 4, size/record: 8, table size: 32
	.data: load addr=0000f288, load size=000002fa bytes, run addr=0801cc40, run size=00000a54 bytes, compression=lzss
	.bss: load addr=0000f590, load size=00000008 bytes, run addr=08014bc0, run size=00004b80 bytes, compression=zero_init
	.myFiqStack: load addr=0000f598, load size=00000008 bytes, run addr=0801d698, run size=00000800 bytes, compression=zero_init
	systemHeap: load addr=0000f5a0, load size=00000008 bytes, run addr=0800cbb8, run size=00008000 bytes, compression=zero_init


LINKER GENERATED HANDLER TABLE

__TI_handler_table @ 0000f584 records: 3, size/record: 4, table size: 12
	index: 0, handler: __TI_zero_init
	index: 1, handler: __TI_decompress_lzss
	index: 2, handler: __TI_decompress_none


FAR CALL TRAMPOLINES

callee name               trampoline name
   callee addr  tramp addr   call addr  call info
--------------  -----------  ---------  ----------------
main                      $Tramp$TT$L$PI$$main
   0000f1e9     08009628     0800c6a0   rtsv7R4_T_le_v3D16_eabi.lib : args_main.obj (.text)
SBL_init                  $Tramp$TT$L$PI$$SBL_init
   0800921d     0000f1f4     0000f1ea   main.oer4f (.text:main)
xdc_runtime_System_exit__E  $Tramp$TT$L$PI$$xdc_runtime_System_exit__E
   0800aed1     0000f270     0000f258   boot.aer4ft : boot.oer4ft (.text)
_args_main                $Tramp$TT$L$PI$$_args_main
   0800c691     0000f278     0000f254   boot.aer4ft : boot.oer4ft (.text)
__TI_auto_init            $Tramp$TT$L$PI$$__TI_auto_init
   08008525     0000f280     0000f250   boot.aer4ft : boot.oer4ft (.text)

[5 trampolines]
[5 trampoline calls]


GLOBAL SYMBOLS: SORTED ALPHABETICALLY BY Name 

address   name                                                                 
-------   ----                                                                 
0800add5  C$$EXIT                                                              
08009f5b  C$$IO$$                                                              
0800be01  CRC_close                                                            
08006c25  CRC_computeSignature                                                 
0800ad35  CRC_getSignature                                                     
0800aa21  CRC_getTransactionId                                                 
0800c8d1  CRC_initConfigParams                                                 
0800477d  CRC_open                                                             
0800c945  DMA_Params_init                                                      
080081f9  DMA_assignChannel                                                    
08006b25  DMA_clearChannelInterruptFlag                                        
0801cf30  DMA_defaultParams                                                    
08009ca1  DMA_disableChannel                                                   
0800680d  DMA_disableInterrupt                                                 
08009d0d  DMA_enableChannel                                                    
080070e9  DMA_enableInterrupt                                                  
0800aa75  DMA_freeChannel                                                      
08007c59  DMA_getChannelInterruptFlag                                          
080036b9  DMA_open                                                             
0800497d  DMA_setChannelParams                                                 
0800b215  HOSTclose                                                            
0800a1ad  HOSTlseek                                                            
0800a79d  HOSTopen                                                             
0800a7f9  HOSTread                                                             
0800a215  HOSTrename                                                           
0800b259  HOSTunlink                                                           
0800a9c9  HOSTwrite                                                            
0800c807  HwiP_Params_init                                                     
080094b1  HwiP_create                                                          
0800b92d  HwiP_delete                                                          
08001b09  HwiP_disable                                                         
0800410d  HwiP_disableInterrupt                                                
08003969  HwiP_restore                                                         
0800c8e3  MemoryP_ctrlAlloc                                                    
08006f05  MemoryP_ctrlFree                                                     
08009d79  Pinmux_Set_FuncSel                                                   
08008151  Pinmux_Set_OverrideCtrl                                              
0800c2f5  QSPIFlashGetStatus                                                   
0800c955  QSPIFlashWriteCmd                                                    
0800b701  QSPIFlash_close                                                      
080083e5  QSPIFlash_configMmapRead                                             
0801d5e4  QSPIFlash_deviceFxnTbl_macronix                                      
0801d5ec  QSPIFlash_deviceFxnTbl_spansion                                      
0800bbb5  QSPIFlash_getDeviceID                                                
0800bfc9  QSPIFlash_getExtFlashAddr                                            
0800107b  QSPIFlash_init                                                       
080097a9  QSPIFlash_mmapRead                                                   
08003ea1  QSPIFlash_open                                                       
0800b385  QSPIFlash_progQuadRead                                               
08009821  QSPIFlash_sectorErase                                                
0800746d  QSPIFlash_singleWrite                                                
0800584d  QSPIFlash_sysDmaRead                                                 
0800aac9  QSPIFlash_writeEnable                                                
0800c965  QSPI_Params_init                                                     
08009899  QSPI_cfgRead                                                         
08009e51  QSPI_cfgWrite                                                        
0800a27d  QSPI_close                                                           
0801ba04  QSPI_defaultParams                                                   
08001ff3  QSPI_init                                                            
08009911  QSPI_memAccessCfg                                                    
0800543d  QSPI_open                                                            
08007ae1  SBL_bufferMgmt                                                       
0800ba11  SBL_bufferMgmtTask                                                   
08005ad5  SBL_calculateImageOffset                                             
08006391  SBL_decryptImage                                                     
0800bff1  SBL_imageAuthParamsInit                                              
0800c1cd  SBL_imageDecryptParamsInit                                           
080071c9  SBL_imageFlasher                                                     
08003135  SBL_imageLoader                                                      
08001ff5  SBL_imageParser                                                      
080064b9  SBL_imageValidationCheck                                             
0800921d  SBL_init                                                             
080015c5  SBL_initTask                                                         
080023f1  SBL_metaHeaderParser                                                 
0800932d  SBL_mpuConfigBSS                                                     
08006915  SBL_mpuConfigDefault                                                 
08004d49  SBL_multicoreImageParser                                             
0800a2e1  SBL_parserInitialization                                             
08008c7b  SBL_platformInit                                                     
0800b73d  SBL_printf                                                           
0800b779  SBL_resetBuffers                                                     
0800ab1d  SBL_transportConfig                                                  
08003c15  SBL_transportDeinit                                                  
080027b5  SBL_transportDownloadFile                                            
0800b9a1  SBL_transportInit                                                    
0800c975  SBL_transportRead                                                    
UNDEFED   SHT$$INIT_ARRAY$$Base                                                
UNDEFED   SHT$$INIT_ARRAY$$Limit                                               
08007d83  SOC_MPUAreRegionsSeparate                                            
08007d2f  SOC_MPUDisable                                                       
08007d63  SOC_MPUDisableBackgroundRegion                                       
08007d11  SOC_MPUEnable                                                        
08007d4d  SOC_MPUEnableBackgroundRegion                                        
08007d79  SOC_MPUGetNumberOfRegions                                            
08007d91  SOC_MPUGetRegion                                                     
08007d9d  SOC_MPUGetRegionBaseAddress                                          
08007db7  SOC_MPUGetRegionPermission                                           
08007dad  SOC_MPUGetRegionType                                                 
08007d8b  SOC_MPUSetRegion                                                     
08007d97  SOC_MPUSetRegionBaseAddress                                          
08007dc1  SOC_MPUSetRegionSizeRegister                                         
08007da3  SOC_MPUSetRegionTypeAndPermission                                    
0800bf9d  SOC_SystemISR                                                        
08002b35  SOC_deviceInit                                                       
08008d11  SOC_gateClock                                                        
0800b969  SOC_getMSSVCLKFrequency                                              
0800ba45  SOC_hasDSPCore                                                       
08008fe5  SOC_init                                                             
0800b1d1  SOC_resetDMA                                                         
080065e1  SOC_setPeripheralClock                                               
0800bbe5  SOC_softReset                                                        
080077ad  SOC_ungateClock                                                      
0800b7b5  SOC_unhaltBSS                                                        
08002e49  SemaphoreP_Params_init                                               
0800a345  SemaphoreP_create                                                    
0800ca41  SemaphoreP_delete                                                    
0800c8f5  SemaphoreP_pend                                                      
08007385  SemaphoreP_post                                                      
08007385  SemaphoreP_postFromClock                                             
08007385  SemaphoreP_postFromISR                                               
080050e5  UART_Params_init                                                     
08007875  UART_close                                                           
0801d484  UART_config                                                          
0801b77c  UART_defaultParams                                                   
0800b9a1  UART_init                                                            
0800ba79  UART_open                                                            
08007945  UART_read                                                            
08007a15  UART_writePolling                                                    
0800a917  UartSci_closeDMA                                                     
0800c317  UartSci_disableRxDMA                                                 
0800c845  UartSci_disableTxDMA                                                 
0800c339  UartSci_enableRxDMA                                                  
0800c859  UartSci_enableTxDMA                                                  
08009071  UartSci_initiateRxDMA                                                
08008e39  UartSci_initiateTxDMA                                                
08005c15  UartSci_isDMAEnabled                                                 
08007e85  UartSci_openDMA                                                      
0800c86d  _DebugP_assert                                                       
00000000  __ASM__                                                              
08019580  __CIOBUF_                                                            
00000070  __ISA__                                                              
00000082  __PLAT__                                                             
0801cc40  __STACK_END                                                          
00001000  __STACK_SIZE                                                         
000000a6  __TARG__                                                             
0000f5a8  __TI_CINIT_Base                                                      
0000f5c8  __TI_CINIT_Limit                                                     
0000f584  __TI_Handler_Table_Base                                              
0000f590  __TI_Handler_Table_Limit                                             
08008525  __TI_auto_init                                                       
08004fe7  __TI_cleanup                                                         
0801d5d0  __TI_cleanup_ptr                                                     
08008a1d  __TI_closefile                                                       
08009ebd  __TI_decompress_lzss                                                 
0800ca4f  __TI_decompress_none                                                 
08007611  __TI_doflush                                                         
0801d5d4  __TI_dtors_ptr                                                       
0801d5d8  __TI_enable_exit_profile_output                                      
0801d5a0  __TI_ft_end                                                          
ffffffff  __TI_pprof_out_hndl                                                  
080007c5  __TI_printfi                                                         
ffffffff  __TI_prof_data_size                                                  
ffffffff  __TI_prof_data_start                                                 
08008105  __TI_rd_ok                                                           
08009f5f  __TI_readmsg                                                         
00000000  __TI_static_base__                                                   
080196a0  __TI_tmpnams                                                         
08009f29  __TI_writemsg                                                        
080080a1  __TI_wrt_ok                                                          
08006255  __TI_zero_init                                                       
000000cd  __TRDR__                                                             
0800584b  __aeabi_idiv0                                                        
0800972d  __aeabi_memclr                                                       
0800972d  __aeabi_memclr4                                                      
0800972d  __aeabi_memclr8                                                      
080086fd  __aeabi_memcpy                                                       
080086fd  __aeabi_memcpy4                                                      
080086fd  __aeabi_memcpy8                                                      
0800972f  __aeabi_memset                                                       
0800972f  __aeabi_memset4                                                      
0800972f  __aeabi_memset8                                                      
0801d5ac  __aeabi_stderr                                                       
0801d5a4  __aeabi_stdin                                                        
0801d5a8  __aeabi_stdout                                                       
0800ae24  __aeabi_uidiv                                                        
0800ae24  __aeabi_uidivmod                                                     
08003400  __aeabi_uldivmod                                                     
ffffffff  __binit__                                                            
ffffffff  __c_args__                                                           
0801bc40  __stack                                                              
00000000  _appVecs                                                             
0800c691  _args_main                                                           
0000f1fc  _c_int00                                                             
0000f19c  _constLoadEnd                                                        
0000ccb8  _constLoadStart                                                      
08019740  _constRunAddr                                                        
0801b42e  _ctypes_                                                             
0801d100  _device                                                              
0801ce40  _ftable                                                              
0000ccb2  _libLoadEnd                                                          
00000100  _libLoadStart                                                        
08000000  _libRunAddr                                                          
0801d5dc  _lock                                                                
0800c88f  _nop                                                                 
0800c887  _register_lock                                                       
0800c881  _register_unlock                                                     
0801d28c  _stream                                                              
0000f1a1  _system_pre_init                                                     
0801d5e0  _unlock                                                              
0800add9  abort                                                                
0800ad85  atoi                                                                 
ffffffff  binit                                                                
0800a971  close                                                                
0800b005  copy_in                                                              
0800c5f3  copysign                                                             
0800c5f3  copysignl                                                            
0800be2d  crc16_ccitt                                                          
08016580  dataBuff                                                             
0801d664  errno                                                                
0800ade1  exit                                                                 
08008a83  fclose                                                               
0800765d  fflush                                                               
08009989  finddevice                                                           
0800503d  fopen                                                                
08008ab5  fputc                                                                
08005fdd  fputs                                                                
0800c5d9  free                                                                 
08005013  freopen                                                              
080099fd  frexp                                                                
080099fd  frexpl                                                               
0800a3a9  fseek                                                                
0801d654  gCRCRegister                                                         
08016558  gDMADriverPtr                                                        
0801d178  gDMAHwCfg                                                            
0801d658  gPinmuxRegs                                                          
0801d65c  gQSPIDriverPtr                                                       
0801d4cc  gQSPIFlashHwCfg                                                      
0801d590  gQSPIHwCfg                                                           
0801d4d0  gSOCHwAttrib                                                         
08014bc0  gSblMCB                                                              
0801d45c  gUartSciFxnTable                                                     
0801d234  gUartSciHwCfg                                                        
080099b7  getdevice                                                            
08018d80  imageChunk                                                           
08006e19  ldexp                                                                
08006e19  ldexpl                                                               
0800c069  lseek                                                                
0800ab71  ltoa                                                                 
0000f1e9  main                                                                 
0801d670  main_func_sp                                                         
0800bdd1  malloc                                                               
0800c541  memccpy                                                              
0800c37d  memchr                                                               
080086fd  memcpy                                                               
08009735  memset                                                               
0801cf40  metaHeaderLcl                                                        
08007b9d  open                                                                 
08016560  parmbuf                                                              
08009a79  printf                                                               
08008ab5  putc                                                                 
08008b3b  putchar                                                              
080060ed  puts                                                                 
0800be59  remove                                                               
08006e19  scalbn                                                               
08006e19  scalbnl                                                              
080072a9  setvbuf                                                              
0800c7a9  strchr                                                               
0800c6a9  strcmp                                                               
0800c895  strcpy                                                               
0800c7bf  strlen                                                               
0800b9d9  strncpy                                                              
0801d4a8  ti_sysbios_BIOS_Module__state__V                                     
0800c627  ti_sysbios_BIOS_RtsGateProxy_Handle__label__S                        
0800433d  ti_sysbios_BIOS_RtsGateProxy_enter__E                                
08004b6d  ti_sysbios_BIOS_RtsGateProxy_leave__E                                
0800cb41  ti_sysbios_BIOS_RtsGateProxy_query__E                                
0800bc15  ti_sysbios_BIOS_atExitFunc__I                                        
0800c1f1  ti_sysbios_BIOS_errorRaiseHook__I                                    
0800c7d5  ti_sysbios_BIOS_exitFunc__I                                          
0800c991  ti_sysbios_BIOS_exit__E                                              
0800cb91  ti_sysbios_BIOS_linkedWithIncorrectBootLibrary__E                    
08006f0f  ti_sysbios_BIOS_nullFunc__I                                          
0800c215  ti_sysbios_BIOS_registerRTSLock__I                                   
0800c239  ti_sysbios_BIOS_removeRTSLock__I                                     
0800c55d  ti_sysbios_BIOS_rtsLock__I                                           
0800c6c1  ti_sysbios_BIOS_rtsUnlock__I                                         
0800c9a1  ti_sysbios_BIOS_setThreadType__E                                     
0800bc45  ti_sysbios_BIOS_startFunc__I                                         
0800c9b1  ti_sysbios_BIOS_start__E                                             
08006114  ti_sysbios_family_arm_IntrinsicsSupport_maxbitA__I                   
08006114  ti_sysbios_family_arm_IntrinsicsSupport_maxbit__E                    
080052b9  ti_sysbios_family_arm_TaskSupport_Module__startupDone__S             
080095ac  ti_sysbios_family_arm_TaskSupport_buildTaskStack                     
0800ca71  ti_sysbios_family_arm_TaskSupport_checkStack__E                      
0800ca81  ti_sysbios_family_arm_TaskSupport_getStackAlignment__E               
0800c508  ti_sysbios_family_arm_TaskSupport_glue                               
0801ba54  ti_sysbios_family_arm_TaskSupport_stackAlignment__C                  
0800bc81  ti_sysbios_family_arm_TaskSupport_start__E                           
0800c524  ti_sysbios_family_arm_TaskSupport_swap__E                            
0801ba58  ti_sysbios_family_arm_exc_Exception_E_dataAbort__C                   
0801ba5c  ti_sysbios_family_arm_exc_Exception_E_prefetchAbort__C               
0801ba60  ti_sysbios_family_arm_exc_Exception_E_swi__C                         
0801ba64  ti_sysbios_family_arm_exc_Exception_E_undefinedInstruction__C        
0801d690  ti_sysbios_family_arm_exc_Exception_Module_State_0_excActive__A      
0801d674  ti_sysbios_family_arm_exc_Exception_Module_State_0_excContext__A     
0801d678  ti_sysbios_family_arm_exc_Exception_Module_State_0_excStackBuffers__A
08017580  ti_sysbios_family_arm_exc_Exception_Module_State_0_excStack_0__A     
0801d67c  ti_sysbios_family_arm_exc_Exception_Module_State_0_excStack__A       
0801bc00  ti_sysbios_family_arm_exc_Exception_Module__id__C                    
0801d57c  ti_sysbios_family_arm_exc_Exception_Module__state__V                 
0800ca91  ti_sysbios_family_arm_exc_Exception_Module_startup__E                
08003c21  ti_sysbios_family_arm_exc_Exception_excDumpContext__I                
08007540  ti_sysbios_family_arm_exc_Exception_excHandlerAsm__I                 
080075a8  ti_sysbios_family_arm_exc_Exception_excHandlerDataAsm__I             
080052c1  ti_sysbios_family_arm_exc_Exception_excHandler__I                    
0801ba68  ti_sysbios_family_arm_exc_Exception_excHookFuncs__A                  
0801ba6c  ti_sysbios_family_arm_exc_Exception_excHookFuncs__C                  
0800a40c  ti_sysbios_family_arm_exc_Exception_initCore0__I                     
0801ba70  ti_sysbios_family_arm_v7r_tms570_Core_E_mismatchedIds__C             
0801bc02  ti_sysbios_family_arm_v7r_tms570_Core_Module__id__C                  
0800b2a1  ti_sysbios_family_arm_v7r_tms570_Core_Module_startup__E              
0800a4d5  ti_sysbios_family_arm_v7r_tms570_Core_getId__E                       
0801ba74  ti_sysbios_family_arm_v7r_tms570_Core_id__C                          
0801ba78  ti_sysbios_family_arm_v7r_vim_Hwi_A_badChannelId__C                  
0801ba7c  ti_sysbios_family_arm_v7r_vim_Hwi_E_alreadyDefined__C                
0801ba80  ti_sysbios_family_arm_v7r_vim_Hwi_E_badIntNum__C                     
0801ba84  ti_sysbios_family_arm_v7r_vim_Hwi_E_phantomInterrupt__C              
0801ba88  ti_sysbios_family_arm_v7r_vim_Hwi_E_undefined__C                     
0801ba8c  ti_sysbios_family_arm_v7r_vim_Hwi_E_unsupportedMaskingOption__C      
08009101  ti_sysbios_family_arm_v7r_vim_Hwi_Instance_finalize__E               
08007001  ti_sysbios_family_arm_v7r_vim_Hwi_Instance_init__E                   
0801cc40  ti_sysbios_family_arm_v7r_vim_Hwi_Module_State_0_dispatchTable__A    
0801d698  ti_sysbios_family_arm_v7r_vim_Hwi_Module_State_0_fiqStack__A         
0801ba90  ti_sysbios_family_arm_v7r_vim_Hwi_Module__diagsEnabled__C            
0801ba94  ti_sysbios_family_arm_v7r_vim_Hwi_Module__diagsIncluded__C           
0801ba98  ti_sysbios_family_arm_v7r_vim_Hwi_Module__diagsMask__C               
0801bc04  ti_sysbios_family_arm_v7r_vim_Hwi_Module__id__C                      
0801d5f4  ti_sysbios_family_arm_v7r_vim_Hwi_Module__root__V                    
0800c6d9  ti_sysbios_family_arm_v7r_vim_Hwi_Module__startupDone__F             
0800c6d9  ti_sysbios_family_arm_v7r_vim_Hwi_Module__startupDone__S             
0801d3a0  ti_sysbios_family_arm_v7r_vim_Hwi_Module__state__V                   
08007881  ti_sysbios_family_arm_v7r_vim_Hwi_Module_startup__E                  
0801ba9c  ti_sysbios_family_arm_v7r_vim_Hwi_NUM_INTERRUPTS__C                  
0801b8c8  ti_sysbios_family_arm_v7r_vim_Hwi_Object__DESC__C                    
0801b7b8  ti_sysbios_family_arm_v7r_vim_Hwi_Object__PARAMS__C                  
0800c39d  ti_sysbios_family_arm_v7r_vim_Hwi_Object__delete__S                  
0801d404  ti_sysbios_family_arm_v7r_vim_Hwi_Object__table__V                   
0800c6f1  ti_sysbios_family_arm_v7r_vim_Hwi_Params__init__S                    
0801b600  ti_sysbios_family_arm_v7r_vim_Hwi_channelMap__A                      
0801baa0  ti_sysbios_family_arm_v7r_vim_Hwi_channelMap__C                      
0800c711  ti_sysbios_family_arm_v7r_vim_Hwi_clearInterrupt__E                  
0800abc5  ti_sysbios_family_arm_v7r_vim_Hwi_create                             
080052bd  ti_sysbios_family_arm_v7r_vim_Hwi_delete                             
0800c3c1  ti_sysbios_family_arm_v7r_vim_Hwi_disableInterrupt__E                
08005ea1  ti_sysbios_family_arm_v7r_vim_Hwi_dispatchIRQC__I                    
08008da4  ti_sysbios_family_arm_v7r_vim_Hwi_dispatchIRQ__I                     
0800c3e1  ti_sysbios_family_arm_v7r_vim_Hwi_enableInterrupt__E                 
0800b051  ti_sysbios_family_arm_v7r_vim_Hwi_getStackInfo__E                    
080087a1  ti_sysbios_family_arm_v7r_vim_Hwi_initIntController__I               
0800b7f0  ti_sysbios_family_arm_v7r_vim_Hwi_init__I                            
0801ba14  ti_sysbios_family_arm_v7r_vim_Hwi_intReqEnaSet__A                    
0801baa4  ti_sysbios_family_arm_v7r_vim_Hwi_intReqEnaSet__C                    
08008841  ti_sysbios_family_arm_v7r_vim_Hwi_mapChannel__I                      
0801baa8  ti_sysbios_family_arm_v7r_vim_Hwi_phantomFunc__C                     
0800a471  ti_sysbios_family_arm_v7r_vim_Hwi_phantomIntHandler__I               
080055a1  ti_sysbios_family_arm_v7r_vim_Hwi_reconfig__E                        
0800b411  ti_sysbios_family_arm_v7r_vim_Hwi_setType__E                         
0800cae1  ti_sysbios_family_arm_v7r_vim_Hwi_startup__E                         
0801baac  ti_sysbios_family_arm_v7r_vim_Hwi_swiDisable__C                      
0801bab0  ti_sysbios_family_arm_v7r_vim_Hwi_swiRestoreHwi__C                   
0800caa1  ti_sysbios_family_arm_v7r_vim_Hwi_switchFromBootStack__E             
0801bab4  ti_sysbios_family_arm_v7r_vim_Hwi_taskDisable__C                     
0801bab8  ti_sysbios_family_arm_v7r_vim_Hwi_taskRestoreHwi__C                  
00000000  ti_sysbios_family_arm_v7r_vim_Hwi_vectors                            
fffffdec  ti_sysbios_family_arm_v7r_vim_Hwi_vim                                
0801ba24  ti_sysbios_family_arm_v7r_vim_Hwi_wakeEnaSet__A                      
0801babc  ti_sysbios_family_arm_v7r_vim_Hwi_wakeEnaSet__C                      
08008b98  ti_sysbios_family_xxx_Hwi_switchAndRunDispatchC                      
08008b4c  ti_sysbios_family_xxx_Hwi_switchAndRunFunc                           
0800c60d  ti_sysbios_gates_GateHwi_Handle__label__S                            
0800cba1  ti_sysbios_gates_GateHwi_Instance_init__E                            
0801b838  ti_sysbios_gates_GateHwi_Module__FXNS__C                             
0801d5fc  ti_sysbios_gates_GateHwi_Module__root__V                             
0801b8e8  ti_sysbios_gates_GateHwi_Object__DESC__C                             
0801b9a8  ti_sysbios_gates_GateHwi_Object__PARAMS__C                           
0800bcb1  ti_sysbios_gates_GateHwi_Object__create__S                           
0800c401  ti_sysbios_gates_GateHwi_Object__delete__S                           
0801d680  ti_sysbios_gates_GateHwi_Object__table__V                            
0800cad1  ti_sysbios_gates_GateHwi_enter__E                                    
0800caf1  ti_sysbios_gates_GateHwi_leave__E                                    
0800cb31  ti_sysbios_gates_GateHwi_query__E                                    
0801bac0  ti_sysbios_gates_GateMutex_A_badContext__C                           
0800c627  ti_sysbios_gates_GateMutex_Handle__label__S                          
0801bac4  ti_sysbios_gates_GateMutex_Instance_State_sem__O                     
0800c9c1  ti_sysbios_gates_GateMutex_Instance_finalize__E                      
0800c581  ti_sysbios_gates_GateMutex_Instance_init__E                          
0801b85c  ti_sysbios_gates_GateMutex_Module__FXNS__C                           
0801bac8  ti_sysbios_gates_GateMutex_Module__diagsEnabled__C                   
0801bacc  ti_sysbios_gates_GateMutex_Module__diagsIncluded__C                  
0801bad0  ti_sysbios_gates_GateMutex_Module__diagsMask__C                      
0801bc06  ti_sysbios_gates_GateMutex_Module__id__C                             
0801d604  ti_sysbios_gates_GateMutex_Module__root__V                           
0801b908  ti_sysbios_gates_GateMutex_Object__DESC__C                           
0801b9c0  ti_sysbios_gates_GateMutex_Object__PARAMS__C                         
0800bce1  ti_sysbios_gates_GateMutex_Object__create__S                         
0800c25d  ti_sysbios_gates_GateMutex_Object__delete__S                         
0801d324  ti_sysbios_gates_GateMutex_Object__table__V                          
08007dd1  ti_sysbios_gates_GateMutex_enter__E                                  
0800c5a1  ti_sysbios_gates_GateMutex_leave__E                                  
0800cb41  ti_sysbios_gates_GateMutex_query__E                                  
0800a4d5  ti_sysbios_hal_Core_CoreProxy_getId__E                               
0801bad4  ti_sysbios_hal_Hwi_E_stackOverflow__C                                
0800c6d9  ti_sysbios_hal_Hwi_HwiProxy_Module__startupDone__S                   
0800c6f1  ti_sysbios_hal_Hwi_HwiProxy_Params__init__S                          
0800c711  ti_sysbios_hal_Hwi_HwiProxy_clearInterrupt__E                        
0800c3c1  ti_sysbios_hal_Hwi_HwiProxy_disableInterrupt__E                      
0800c3e1  ti_sysbios_hal_Hwi_HwiProxy_enableInterrupt__E                       
0800b051  ti_sysbios_hal_Hwi_HwiProxy_getStackInfo__E                          
0800cae1  ti_sysbios_hal_Hwi_HwiProxy_startup__E                               
0800caa1  ti_sysbios_hal_Hwi_HwiProxy_switchFromBootStack__E                   
0801bc08  ti_sysbios_hal_Hwi_Module__id__C                                     
0800c911  ti_sysbios_hal_Hwi_Module_startup__E                                 
0801d60c  ti_sysbios_hal_Hwi_Object__table__V                                  
0800b831  ti_sysbios_hal_Hwi_checkStack                                        
0800c711  ti_sysbios_hal_Hwi_clearInterrupt__E                                 
0800c3c1  ti_sysbios_hal_Hwi_disableInterrupt__E                               
0800c3e1  ti_sysbios_hal_Hwi_enableInterrupt__E                                
0800b051  ti_sysbios_hal_Hwi_getStackInfo__E                                   
0800bb81  ti_sysbios_hal_Hwi_initStack                                         
0800cae1  ti_sysbios_hal_Hwi_startup__E                                        
0800caa1  ti_sysbios_hal_Hwi_switchFromBootStack__E                            
0801bad8  ti_sysbios_heaps_HeapBuf_Instance_State_freeList__O                  
0801d684  ti_sysbios_heaps_HeapBuf_Module__state__V                            
08006f11  ti_sysbios_heaps_HeapBuf_Module_startup__E                           
0801badc  ti_sysbios_heaps_HeapBuf_Object__count__C                            
0800c9d1  ti_sysbios_heaps_HeapBuf_Object__get__S                              
0801bae0  ti_sysbios_heaps_HeapBuf_numConstructedHeaps__C                      
0801bae4  ti_sysbios_heaps_HeapMem_A_align__C                                  
0801bae8  ti_sysbios_heaps_HeapMem_A_heapSize__C                               
0801baec  ti_sysbios_heaps_HeapMem_A_invalidFree__C                            
0801baf0  ti_sysbios_heaps_HeapMem_A_zeroBlock__C                              
0801baf4  ti_sysbios_heaps_HeapMem_E_memory__C                                 
0800c641  ti_sysbios_heaps_HeapMem_Handle__label__S                            
0800cbb8  ti_sysbios_heaps_HeapMem_Instance_State_0_buf__A                     
08005c21  ti_sysbios_heaps_HeapMem_Instance_init__E                            
0800c627  ti_sysbios_heaps_HeapMem_Module_GateProxy_Handle__label__S           
0800559d  ti_sysbios_heaps_HeapMem_Module_GateProxy_enter__E                   
08006a19  ti_sysbios_heaps_HeapMem_Module_GateProxy_leave__E                   
0800cb41  ti_sysbios_heaps_HeapMem_Module_GateProxy_query__E                   
0801b7e8  ti_sysbios_heaps_HeapMem_Module__FXNS__C                             
0801baf8  ti_sysbios_heaps_HeapMem_Module__diagsEnabled__C                     
0801bafc  ti_sysbios_heaps_HeapMem_Module__diagsIncluded__C                    
0801bb00  ti_sysbios_heaps_HeapMem_Module__diagsMask__C                        
0801bb04  ti_sysbios_heaps_HeapMem_Module__gateObj__C                          
0801bc0a  ti_sysbios_heaps_HeapMem_Module__id__C                               
0801d614  ti_sysbios_heaps_HeapMem_Module__root__V                             
0801b928  ti_sysbios_heaps_HeapMem_Object__DESC__C                             
0801b880  ti_sysbios_heaps_HeapMem_Object__PARAMS__C                           
0801bb08  ti_sysbios_heaps_HeapMem_Object__count__C                            
0800bd11  ti_sysbios_heaps_HeapMem_Object__create__S                           
0800c421  ti_sysbios_heaps_HeapMem_Object__delete__S                           
0800c8a9  ti_sysbios_heaps_HeapMem_Object__get__S                              
0801d54c  ti_sysbios_heaps_HeapMem_Object__table__V                            
08004341  ti_sysbios_heaps_HeapMem_allocUnprotected__E                         
0800a5c1  ti_sysbios_heaps_HeapMem_alloc__E                                    
08003971  ti_sysbios_heaps_HeapMem_freeUnprotected__E                          
0800bd41  ti_sysbios_heaps_HeapMem_free__E                                     
0800ac21  ti_sysbios_heaps_HeapMem_getStats__E                                 
0800b871  ti_sysbios_heaps_HeapMem_init__I                                     
0800cb01  ti_sysbios_heaps_HeapMem_isBlocking__E                               
0801bb0c  ti_sysbios_heaps_HeapMem_reqAlign__C                                 
0801bb10  ti_sysbios_knl_Clock_Module_State_clockQ__O                          
0801d430  ti_sysbios_knl_Clock_Module__state__V                                
0800c281  ti_sysbios_knl_Clock_Module_startup__E                               
0800c779  ti_sysbios_knl_Clock_TimerProxy_Module__startupDone__S               
08006a1d  ti_sysbios_knl_Clock_TimerProxy_getMaxTicks__E                       
08007a21  ti_sysbios_knl_Clock_TimerProxy_startup__E                           
0800be85  ti_sysbios_knl_Clock_doTick__I                                       
0800cbb1  ti_sysbios_knl_Clock_logTick__E                                      
08009631  ti_sysbios_knl_Clock_workFunc__E                                     
0801bb14  ti_sysbios_knl_Idle_funcList__A                                      
0801ba34  ti_sysbios_knl_Idle_funcList__C                                      
0800c7f1  ti_sysbios_knl_Idle_loop__E                                          
0800c0c1  ti_sysbios_knl_Idle_run__E                                           
08006114  ti_sysbios_knl_Intrinsics_SupportProxy_maxbit__E                     
08006114  ti_sysbios_knl_Intrinsics_maxbit__E                                  
0800cb11  ti_sysbios_knl_Queue_Instance_init__E                                
0801d61c  ti_sysbios_knl_Queue_Module__root__V                                 
0801b948  ti_sysbios_knl_Queue_Object__DESC__C                                 
0801b9d8  ti_sysbios_knl_Queue_Object__PARAMS__C                               
080066f5  ti_sysbios_knl_Queue_Object__get__S                                  
0800beb1  ti_sysbios_knl_Queue_construct                                       
0800c5bd  ti_sysbios_knl_Queue_destruct                                        
0800ca61  ti_sysbios_knl_Queue_empty__E                                        
0801bb18  ti_sysbios_knl_Semaphore_A_badContext__C                             
0801bb1c  ti_sysbios_knl_Semaphore_A_noEvents__C                               
0801bb20  ti_sysbios_knl_Semaphore_A_overflow__C                               
0801bb24  ti_sysbios_knl_Semaphore_A_pendTaskDisabled__C                       
0801bb28  ti_sysbios_knl_Semaphore_Instance_State_pendQ__O                     
0800c9e1  ti_sysbios_knl_Semaphore_Instance_finalize__E                        
080088e1  ti_sysbios_knl_Semaphore_Instance_init__E                            
0801bb2c  ti_sysbios_knl_Semaphore_Module__diagsEnabled__C                     
0801bb30  ti_sysbios_knl_Semaphore_Module__diagsIncluded__C                    
0801bb34  ti_sysbios_knl_Semaphore_Module__diagsMask__C                        
0801bc0c  ti_sysbios_knl_Semaphore_Module__id__C                               
0801d624  ti_sysbios_knl_Semaphore_Module__root__V                             
0801b968  ti_sysbios_knl_Semaphore_Object__DESC__C                             
0801b8a4  ti_sysbios_knl_Semaphore_Object__PARAMS__C                           
0800c2a5  ti_sysbios_knl_Semaphore_Object__delete__S                           
0800c729  ti_sysbios_knl_Semaphore_Params__init__S                             
0800bd71  ti_sysbios_knl_Semaphore_construct                                   
0800baad  ti_sysbios_knl_Semaphore_create                                      
08006ffd  ti_sysbios_knl_Semaphore_delete                                      
0800c441  ti_sysbios_knl_Semaphore_destruct                                    
0800bee1  ti_sysbios_knl_Semaphore_pendTimeout__I                              
08002e51  ti_sysbios_knl_Semaphore_pend__E                                     
08007391  ti_sysbios_knl_Semaphore_post__E                                     
0801d000  ti_sysbios_knl_Swi_Module_State_0_readyQ__A                          
0801d530  ti_sysbios_knl_Swi_Module__state__V                                  
0800bf11  ti_sysbios_knl_Swi_Module_startup__E                                 
0801bb38  ti_sysbios_knl_Swi_Object__count__C                                  
0800c8bd  ti_sysbios_knl_Swi_Object__get__S                                    
0801d3d4  ti_sysbios_knl_Swi_Object__table__V                                  
0800c9f1  ti_sysbios_knl_Swi_disable__E                                        
0800b451  ti_sysbios_knl_Swi_post__E                                           
08007f41  ti_sysbios_knl_Swi_restoreHwi__E                                     
08008981  ti_sysbios_knl_Swi_runLoop__I                                        
0800a861  ti_sysbios_knl_Swi_schedule__I                                       
0800b8b1  ti_sysbios_knl_Swi_startup__E                                        
0801bb3c  ti_sysbios_knl_Task_A_badPriority__C                                 
0801bb40  ti_sysbios_knl_Task_A_badTaskState__C                                
0801bb44  ti_sysbios_knl_Task_A_badThreadType__C                               
0801bb48  ti_sysbios_knl_Task_A_noPendElem__C                                  
0801bb4c  ti_sysbios_knl_Task_E_spOutOfBounds__C                               
0801bb50  ti_sysbios_knl_Task_E_stackOverflow__C                               
08018580  ti_sysbios_knl_Task_Instance_State_0_stack__A                        
08004111  ti_sysbios_knl_Task_Instance_finalize__E                             
080050f1  ti_sysbios_knl_Task_Instance_init__E                                 
0801d688  ti_sysbios_knl_Task_Module_State_0_idleTask__A                       
0801d080  ti_sysbios_knl_Task_Module_State_0_readyQ__A                         
0801bb54  ti_sysbios_knl_Task_Module_State_inactiveQ__O                        
0801bb58  ti_sysbios_knl_Task_Module__diagsEnabled__C                          
0801bb5c  ti_sysbios_knl_Task_Module__diagsIncluded__C                         
0801bb60  ti_sysbios_knl_Task_Module__diagsMask__C                             
0801bc0e  ti_sysbios_knl_Task_Module__id__C                                    
0801d62c  ti_sysbios_knl_Task_Module__root__V                                  
0801d2dc  ti_sysbios_knl_Task_Module__state__V                                 
08004b71  ti_sysbios_knl_Task_Module_startup__E                                
0801b988  ti_sysbios_knl_Task_Object__DESC__C                                  
0801b738  ti_sysbios_knl_Task_Object__PARAMS__C                                
0801bb64  ti_sysbios_knl_Task_Object__count__C                                 
0800ca01  ti_sysbios_knl_Task_Object__get__S                                   
0801d1d8  ti_sysbios_knl_Task_Object__table__V                                 
0800c741  ti_sysbios_knl_Task_Params__init__S                                  
080052b9  ti_sysbios_knl_Task_SupportProxy_Module__startupDone__S              
0800ca71  ti_sysbios_knl_Task_SupportProxy_checkStack__E                       
0800ca81  ti_sysbios_knl_Task_SupportProxy_getStackAlignment__E                
0800bc81  ti_sysbios_knl_Task_SupportProxy_start__E                            
0800c524  ti_sysbios_knl_Task_SupportProxy_swap__E                             
0801bb68  ti_sysbios_knl_Task_allBlockedFunc__C                                
0800b2f1  ti_sysbios_knl_Task_allBlockedFunction__I                            
080076e1  ti_sysbios_knl_Task_checkStacks__E                                   
0800b09d  ti_sysbios_knl_Task_create                                           
0801bb6c  ti_sysbios_knl_Task_defaultStackHeap__C                              
0801bb70  ti_sysbios_knl_Task_defaultStackSize__C                              
0800ca11  ti_sysbios_knl_Task_disable__E                                       
0800c761  ti_sysbios_knl_Task_enter__I                                         
08009ae1  ti_sysbios_knl_Task_exit__E                                          
0801bb74  ti_sysbios_knl_Task_numConstructedTasks__C                           
08007951  ti_sysbios_knl_Task_postInit__I                                      
0800bae1  ti_sysbios_knl_Task_processVitalTaskFlag__I                          
0800c2d1  ti_sysbios_knl_Task_restoreHwi__E                                    
0800c0f1  ti_sysbios_knl_Task_restore__E                                       
0800a4e1  ti_sysbios_knl_Task_schedule__I                                      
0800ac81  ti_sysbios_knl_Task_startCore__E                                     
0800cb51  ti_sysbios_knl_Task_startup__E                                       
0800bf41  ti_sysbios_knl_Task_unblockI__E                                      
0801bb78  ti_sysbios_timers_rti_Timer_E_cannotSupport__C                       
0801d564  ti_sysbios_timers_rti_Timer_Module_State_0_device__A                 
0801d634  ti_sysbios_timers_rti_Timer_Module_State_0_handles__A                
0801d5b0  ti_sysbios_timers_rti_Timer_Module_State_0_intFreqs__A               
0801bb7c  ti_sysbios_timers_rti_Timer_Module__diagsEnabled__C                  
0801bb80  ti_sysbios_timers_rti_Timer_Module__diagsIncluded__C                 
0801bb84  ti_sysbios_timers_rti_Timer_Module__diagsMask__C                     
0801bc10  ti_sysbios_timers_rti_Timer_Module__id__C                            
0800c779  ti_sysbios_timers_rti_Timer_Module__startupDone__F                   
0800c779  ti_sysbios_timers_rti_Timer_Module__startupDone__S                   
0801d5c0  ti_sysbios_timers_rti_Timer_Module__state__V                         
08005991  ti_sysbios_timers_rti_Timer_Module_startup__E                        
0801d364  ti_sysbios_timers_rti_Timer_Object__table__V                         
0801bc12  ti_sysbios_timers_rti_Timer_continueOnSuspend__C                     
08006a21  ti_sysbios_timers_rti_Timer_getFreq__E                               
0800cb61  ti_sysbios_timers_rti_Timer_getMaxTicks__E                           
08009431  ti_sysbios_timers_rti_Timer_initDevice__I                            
0801bb88  ti_sysbios_timers_rti_Timer_numTimerDevices__C                       
0800bf71  ti_sysbios_timers_rti_Timer_periodicStub__E                          
0800ae81  ti_sysbios_timers_rti_Timer_setPeriodMicroSecs__E                    
0800b8f1  ti_sysbios_timers_rti_Timer_setPeriod__E                             
0801bb8c  ti_sysbios_timers_rti_Timer_startupNeeded__C                         
08007a21  ti_sysbios_timers_rti_Timer_startup__E                               
0800b491  ti_sysbios_timers_rti_Timer_stop__E                                  
0800be59  unlink                                                               
080092a5  vsnprintf                                                            
0800c091  write                                                                
0801bb90  xdc_runtime_Assert_E_assertFailed__C                                 
0800a621  xdc_runtime_Assert_raise__I                                          
0801bb94  xdc_runtime_Core_A_initializedParams__C                              
0801bb98  xdc_runtime_Core_Module__diagsEnabled__C                             
0801bb9c  xdc_runtime_Core_Module__diagsIncluded__C                            
0801bba0  xdc_runtime_Core_Module__diagsMask__C                                
0801bc14  xdc_runtime_Core_Module__id__C                                       
0800ace1  xdc_runtime_Core_assignLabel__I                                      
0800b0f1  xdc_runtime_Core_assignParams__I                                     
08006701  xdc_runtime_Core_constructObject__I                                  
08005d61  xdc_runtime_Core_createObject__I                                     
080096b1  xdc_runtime_Core_deleteObject__I                                     
0801bba4  xdc_runtime_Error_E_memory__C                                        
0801d4f0  xdc_runtime_Error_IgnoreBlock                                        
0801d692  xdc_runtime_Error_Module__state__V                                   
0800c791  xdc_runtime_Error_init__E                                            
0801bc16  xdc_runtime_Error_maxDepth__C                                        
08006261  xdc_runtime_Error_policyDefault__E                                   
0801bba8  xdc_runtime_Error_policyFxn__C                                       
0801bbac  xdc_runtime_Error_policy__C                                          
08009b51  xdc_runtime_Error_print__E                                           
0801bbb0  xdc_runtime_Error_raiseHook__C                                       
0801bbb4  xdc_runtime_IGateProvider_Interface__BASE__C                         
0801bbb8  xdc_runtime_IHeap_Interface__BASE__C                                 
0801bbbc  xdc_runtime_IModule_Interface__BASE__C                               
0800c60d  xdc_runtime_Main_Module_GateProxy_Handle__label__S                   
0800cb31  xdc_runtime_Main_Module_GateProxy_query__E                           
0801bc18  xdc_runtime_Main_Module__id__C                                       
0800c641  xdc_runtime_Memory_HeapProxy_Handle__label__S                        
08007dc7  xdc_runtime_Memory_HeapProxy_alloc__E                                
08007f37  xdc_runtime_Memory_HeapProxy_free__E                                 
0801bc1a  xdc_runtime_Memory_Module__id__C                                     
0801d68c  xdc_runtime_Memory_Module__state__V                                  
08009191  xdc_runtime_Memory_alloc__E                                          
0801bbc0  xdc_runtime_Memory_defaultHeapInstance__C                            
0800ca21  xdc_runtime_Memory_free__E                                           
0801d63c  xdc_runtime_Registry_Module__state__V                                
0801d644  xdc_runtime_Startup_Module__state__V                                 
00000001  xdc_runtime_Startup__EXECFXN__C                                      
00000001  xdc_runtime_Startup__RESETFXN__C                                     
0801bbc4  xdc_runtime_Startup_execImpl__C                                      
0800a551  xdc_runtime_Startup_exec__E                                          
0800c923  xdc_runtime_Startup_exec__I                                          
0801ba3c  xdc_runtime_Startup_firstFxns__A                                     
0801ba44  xdc_runtime_Startup_firstFxns__C                                     
0801ba4c  xdc_runtime_Startup_lastFxns__C                                      
0801bbc8  xdc_runtime_Startup_maxPasses__C                                     
0000f1a1  xdc_runtime_Startup_reset__I                                         
0800cab1  xdc_runtime_Startup_rtsDone__E                                       
0801b9f0  xdc_runtime_Startup_sfxnRts__A                                       
0801bbcc  xdc_runtime_Startup_sfxnRts__C                                       
0801b810  xdc_runtime_Startup_sfxnTab__A                                       
0801bbd0  xdc_runtime_Startup_sfxnTab__C                                       
08006121  xdc_runtime_Startup_startMods__I                                     
0800c121  xdc_runtime_SysStd_abort__E                                          
0800cac1  xdc_runtime_SysStd_exit__E                                           
0800cb71  xdc_runtime_SysStd_putch__E                                          
0800cb81  xdc_runtime_SysStd_ready__E                                          
0800c60d  xdc_runtime_System_Module_GateProxy_Handle__label__S                 
080076dd  xdc_runtime_System_Module_GateProxy_enter__E                         
08008799  xdc_runtime_System_Module_GateProxy_leave__E                         
0800cb31  xdc_runtime_System_Module_GateProxy_query__E                         
0801d510  xdc_runtime_System_Module_State_0_atexitHandlers__A                  
0801bbd4  xdc_runtime_System_Module__gateObj__C                                
0801d64c  xdc_runtime_System_Module__state__V                                  
0800cb21  xdc_runtime_System_Module_startup__E                                 
0800c121  xdc_runtime_System_SupportProxy_abort__E                             
0800cac1  xdc_runtime_System_SupportProxy_exit__E                              
0800cb71  xdc_runtime_System_SupportProxy_putch__E                             
0800cb81  xdc_runtime_System_SupportProxy_ready__E                             
0801bbd8  xdc_runtime_System_abortFxn__C                                       
0800add9  xdc_runtime_System_abortStd__E                                       
0800c65b  xdc_runtime_System_aprintf__E                                        
0800c151  xdc_runtime_System_aprintf_va__F                                     
0800b341  xdc_runtime_System_atexit__E                                         
08001b11  xdc_runtime_System_doPrint__I                                        
0801bbdc  xdc_runtime_System_exitFxn__C                                        
0800ade1  xdc_runtime_System_exitStd__E                                        
0800aed1  xdc_runtime_System_exit__E                                           
0801bbe0  xdc_runtime_System_extendFxn__C                                      
0801bbe4  xdc_runtime_System_maxAtexitHandlers__C                              
08006d21  xdc_runtime_System_printfExtend__I                                   
0800c675  xdc_runtime_System_printf__E                                         
0800c181  xdc_runtime_System_printf_va__F                                      
0801bc1c  xdc_runtime_Text_charCnt__C                                          
08019740  xdc_runtime_Text_charTab__A                                          
0801bbe8  xdc_runtime_Text_charTab__C                                          
0801bc1e  xdc_runtime_Text_isLoaded__C                                         
0801bbec  xdc_runtime_Text_nameEmpty__C                                        
0801bbf0  xdc_runtime_Text_nameStatic__C                                       
0801bbf4  xdc_runtime_Text_nameUnknown__C                                      
0801b530  xdc_runtime_Text_nodeTab__A                                          
0801bbf8  xdc_runtime_Text_nodeTab__C                                          
0800bda1  xdc_runtime_Text_printVisFxn__I                                      
0800a681  xdc_runtime_Text_putLab__E                                           
08007ff1  xdc_runtime_Text_putMod__E                                           
08008341  xdc_runtime_Text_putSite__E                                          
0801bc20  xdc_runtime_Text_registryModsLastId__C                               
0801bc22  xdc_runtime_Text_unnamedModsLastId__C                                
08009bc1  xdc_runtime_Text_visitRope2__I                                       
0801bbfc  xdc_runtime_Text_visitRopeFxn__C                                     
0800ca31  xdc_runtime_Text_visitRope__I                                        
0800b141  xdc_runtime_Text_xprintf__I                                          


GLOBAL SYMBOLS: SORTED BY Symbol Address 

address   name                                                                 
-------   ----                                                                 
00000000  __ASM__                                                              
00000000  __TI_static_base__                                                   
00000000  _appVecs                                                             
00000000  ti_sysbios_family_arm_v7r_vim_Hwi_vectors                            
00000001  xdc_runtime_Startup__EXECFXN__C                                      
00000001  xdc_runtime_Startup__RESETFXN__C                                     
00000070  __ISA__                                                              
00000082  __PLAT__                                                             
000000a6  __TARG__                                                             
000000cd  __TRDR__                                                             
00000100  _libLoadStart                                                        
00001000  __STACK_SIZE                                                         
0000ccb2  _libLoadEnd                                                          
0000ccb8  _constLoadStart                                                      
0000f19c  _constLoadEnd                                                        
0000f1a1  _system_pre_init                                                     
0000f1a1  xdc_runtime_Startup_reset__I                                         
0000f1e9  main                                                                 
0000f1fc  _c_int00                                                             
0000f584  __TI_Handler_Table_Base                                              
0000f590  __TI_Handler_Table_Limit                                             
0000f5a8  __TI_CINIT_Base                                                      
0000f5c8  __TI_CINIT_Limit                                                     
08000000  _libRunAddr                                                          
080007c5  __TI_printfi                                                         
0800107b  QSPIFlash_init                                                       
080015c5  SBL_initTask                                                         
08001b09  HwiP_disable                                                         
08001b11  xdc_runtime_System_doPrint__I                                        
08001ff3  QSPI_init                                                            
08001ff5  SBL_imageParser                                                      
080023f1  SBL_metaHeaderParser                                                 
080027b5  SBL_transportDownloadFile                                            
08002b35  SOC_deviceInit                                                       
08002e49  SemaphoreP_Params_init                                               
08002e51  ti_sysbios_knl_Semaphore_pend__E                                     
08003135  SBL_imageLoader                                                      
08003400  __aeabi_uldivmod                                                     
080036b9  DMA_open                                                             
08003969  HwiP_restore                                                         
08003971  ti_sysbios_heaps_HeapMem_freeUnprotected__E                          
08003c15  SBL_transportDeinit                                                  
08003c21  ti_sysbios_family_arm_exc_Exception_excDumpContext__I                
08003ea1  QSPIFlash_open                                                       
0800410d  HwiP_disableInterrupt                                                
08004111  ti_sysbios_knl_Task_Instance_finalize__E                             
0800433d  ti_sysbios_BIOS_RtsGateProxy_enter__E                                
08004341  ti_sysbios_heaps_HeapMem_allocUnprotected__E                         
0800477d  CRC_open                                                             
0800497d  DMA_setChannelParams                                                 
08004b6d  ti_sysbios_BIOS_RtsGateProxy_leave__E                                
08004b71  ti_sysbios_knl_Task_Module_startup__E                                
08004d49  SBL_multicoreImageParser                                             
08004fe7  __TI_cleanup                                                         
08005013  freopen                                                              
0800503d  fopen                                                                
080050e5  UART_Params_init                                                     
080050f1  ti_sysbios_knl_Task_Instance_init__E                                 
080052b9  ti_sysbios_family_arm_TaskSupport_Module__startupDone__S             
080052b9  ti_sysbios_knl_Task_SupportProxy_Module__startupDone__S              
080052bd  ti_sysbios_family_arm_v7r_vim_Hwi_delete                             
080052c1  ti_sysbios_family_arm_exc_Exception_excHandler__I                    
0800543d  QSPI_open                                                            
0800559d  ti_sysbios_heaps_HeapMem_Module_GateProxy_enter__E                   
080055a1  ti_sysbios_family_arm_v7r_vim_Hwi_reconfig__E                        
0800584b  __aeabi_idiv0                                                        
0800584d  QSPIFlash_sysDmaRead                                                 
08005991  ti_sysbios_timers_rti_Timer_Module_startup__E                        
08005ad5  SBL_calculateImageOffset                                             
08005c15  UartSci_isDMAEnabled                                                 
08005c21  ti_sysbios_heaps_HeapMem_Instance_init__E                            
08005d61  xdc_runtime_Core_createObject__I                                     
08005ea1  ti_sysbios_family_arm_v7r_vim_Hwi_dispatchIRQC__I                    
08005fdd  fputs                                                                
080060ed  puts                                                                 
08006114  ti_sysbios_family_arm_IntrinsicsSupport_maxbitA__I                   
08006114  ti_sysbios_family_arm_IntrinsicsSupport_maxbit__E                    
08006114  ti_sysbios_knl_Intrinsics_SupportProxy_maxbit__E                     
08006114  ti_sysbios_knl_Intrinsics_maxbit__E                                  
08006121  xdc_runtime_Startup_startMods__I                                     
08006255  __TI_zero_init                                                       
08006261  xdc_runtime_Error_policyDefault__E                                   
08006391  SBL_decryptImage                                                     
080064b9  SBL_imageValidationCheck                                             
080065e1  SOC_setPeripheralClock                                               
080066f5  ti_sysbios_knl_Queue_Object__get__S                                  
08006701  xdc_runtime_Core_constructObject__I                                  
0800680d  DMA_disableInterrupt                                                 
08006915  SBL_mpuConfigDefault                                                 
08006a19  ti_sysbios_heaps_HeapMem_Module_GateProxy_leave__E                   
08006a1d  ti_sysbios_knl_Clock_TimerProxy_getMaxTicks__E                       
08006a21  ti_sysbios_timers_rti_Timer_getFreq__E                               
08006b25  DMA_clearChannelInterruptFlag                                        
08006c25  CRC_computeSignature                                                 
08006d21  xdc_runtime_System_printfExtend__I                                   
08006e19  ldexp                                                                
08006e19  ldexpl                                                               
08006e19  scalbn                                                               
08006e19  scalbnl                                                              
08006f05  MemoryP_ctrlFree                                                     
08006f0f  ti_sysbios_BIOS_nullFunc__I                                          
08006f11  ti_sysbios_heaps_HeapBuf_Module_startup__E                           
08006ffd  ti_sysbios_knl_Semaphore_delete                                      
08007001  ti_sysbios_family_arm_v7r_vim_Hwi_Instance_init__E                   
080070e9  DMA_enableInterrupt                                                  
080071c9  SBL_imageFlasher                                                     
080072a9  setvbuf                                                              
08007385  SemaphoreP_post                                                      
08007385  SemaphoreP_postFromClock                                             
08007385  SemaphoreP_postFromISR                                               
08007391  ti_sysbios_knl_Semaphore_post__E                                     
0800746d  QSPIFlash_singleWrite                                                
08007540  ti_sysbios_family_arm_exc_Exception_excHandlerAsm__I                 
080075a8  ti_sysbios_family_arm_exc_Exception_excHandlerDataAsm__I             
08007611  __TI_doflush                                                         
0800765d  fflush                                                               
080076dd  xdc_runtime_System_Module_GateProxy_enter__E                         
080076e1  ti_sysbios_knl_Task_checkStacks__E                                   
080077ad  SOC_ungateClock                                                      
08007875  UART_close                                                           
08007881  ti_sysbios_family_arm_v7r_vim_Hwi_Module_startup__E                  
08007945  UART_read                                                            
08007951  ti_sysbios_knl_Task_postInit__I                                      
08007a15  UART_writePolling                                                    
08007a21  ti_sysbios_knl_Clock_TimerProxy_startup__E                           
08007a21  ti_sysbios_timers_rti_Timer_startup__E                               
08007ae1  SBL_bufferMgmt                                                       
08007b9d  open                                                                 
08007c59  DMA_getChannelInterruptFlag                                          
08007d11  SOC_MPUEnable                                                        
08007d2f  SOC_MPUDisable                                                       
08007d4d  SOC_MPUEnableBackgroundRegion                                        
08007d63  SOC_MPUDisableBackgroundRegion                                       
08007d79  SOC_MPUGetNumberOfRegions                                            
08007d83  SOC_MPUAreRegionsSeparate                                            
08007d8b  SOC_MPUSetRegion                                                     
08007d91  SOC_MPUGetRegion                                                     
08007d97  SOC_MPUSetRegionBaseAddress                                          
08007d9d  SOC_MPUGetRegionBaseAddress                                          
08007da3  SOC_MPUSetRegionTypeAndPermission                                    
08007dad  SOC_MPUGetRegionType                                                 
08007db7  SOC_MPUGetRegionPermission                                           
08007dc1  SOC_MPUSetRegionSizeRegister                                         
08007dc7  xdc_runtime_Memory_HeapProxy_alloc__E                                
08007dd1  ti_sysbios_gates_GateMutex_enter__E                                  
08007e85  UartSci_openDMA                                                      
08007f37  xdc_runtime_Memory_HeapProxy_free__E                                 
08007f41  ti_sysbios_knl_Swi_restoreHwi__E                                     
08007ff1  xdc_runtime_Text_putMod__E                                           
080080a1  __TI_wrt_ok                                                          
08008105  __TI_rd_ok                                                           
08008151  Pinmux_Set_OverrideCtrl                                              
080081f9  DMA_assignChannel                                                    
08008341  xdc_runtime_Text_putSite__E                                          
080083e5  QSPIFlash_configMmapRead                                             
08008525  __TI_auto_init                                                       
080086fd  __aeabi_memcpy                                                       
080086fd  __aeabi_memcpy4                                                      
080086fd  __aeabi_memcpy8                                                      
080086fd  memcpy                                                               
08008799  xdc_runtime_System_Module_GateProxy_leave__E                         
080087a1  ti_sysbios_family_arm_v7r_vim_Hwi_initIntController__I               
08008841  ti_sysbios_family_arm_v7r_vim_Hwi_mapChannel__I                      
080088e1  ti_sysbios_knl_Semaphore_Instance_init__E                            
08008981  ti_sysbios_knl_Swi_runLoop__I                                        
08008a1d  __TI_closefile                                                       
08008a83  fclose                                                               
08008ab5  fputc                                                                
08008ab5  putc                                                                 
08008b3b  putchar                                                              
08008b4c  ti_sysbios_family_xxx_Hwi_switchAndRunFunc                           
08008b98  ti_sysbios_family_xxx_Hwi_switchAndRunDispatchC                      
08008c7b  SBL_platformInit                                                     
08008d11  SOC_gateClock                                                        
08008da4  ti_sysbios_family_arm_v7r_vim_Hwi_dispatchIRQ__I                     
08008e39  UartSci_initiateTxDMA                                                
08008fe5  SOC_init                                                             
08009071  UartSci_initiateRxDMA                                                
08009101  ti_sysbios_family_arm_v7r_vim_Hwi_Instance_finalize__E               
08009191  xdc_runtime_Memory_alloc__E                                          
0800921d  SBL_init                                                             
080092a5  vsnprintf                                                            
0800932d  SBL_mpuConfigBSS                                                     
08009431  ti_sysbios_timers_rti_Timer_initDevice__I                            
080094b1  HwiP_create                                                          
080095ac  ti_sysbios_family_arm_TaskSupport_buildTaskStack                     
08009631  ti_sysbios_knl_Clock_workFunc__E                                     
080096b1  xdc_runtime_Core_deleteObject__I                                     
0800972d  __aeabi_memclr                                                       
0800972d  __aeabi_memclr4                                                      
0800972d  __aeabi_memclr8                                                      
0800972f  __aeabi_memset                                                       
0800972f  __aeabi_memset4                                                      
0800972f  __aeabi_memset8                                                      
08009735  memset                                                               
080097a9  QSPIFlash_mmapRead                                                   
08009821  QSPIFlash_sectorErase                                                
08009899  QSPI_cfgRead                                                         
08009911  QSPI_memAccessCfg                                                    
08009989  finddevice                                                           
080099b7  getdevice                                                            
080099fd  frexp                                                                
080099fd  frexpl                                                               
08009a79  printf                                                               
08009ae1  ti_sysbios_knl_Task_exit__E                                          
08009b51  xdc_runtime_Error_print__E                                           
08009bc1  xdc_runtime_Text_visitRope2__I                                       
08009ca1  DMA_disableChannel                                                   
08009d0d  DMA_enableChannel                                                    
08009d79  Pinmux_Set_FuncSel                                                   
08009e51  QSPI_cfgWrite                                                        
08009ebd  __TI_decompress_lzss                                                 
08009f29  __TI_writemsg                                                        
08009f5b  C$$IO$$                                                              
08009f5f  __TI_readmsg                                                         
0800a1ad  HOSTlseek                                                            
0800a215  HOSTrename                                                           
0800a27d  QSPI_close                                                           
0800a2e1  SBL_parserInitialization                                             
0800a345  SemaphoreP_create                                                    
0800a3a9  fseek                                                                
0800a40c  ti_sysbios_family_arm_exc_Exception_initCore0__I                     
0800a471  ti_sysbios_family_arm_v7r_vim_Hwi_phantomIntHandler__I               
0800a4d5  ti_sysbios_family_arm_v7r_tms570_Core_getId__E                       
0800a4d5  ti_sysbios_hal_Core_CoreProxy_getId__E                               
0800a4e1  ti_sysbios_knl_Task_schedule__I                                      
0800a551  xdc_runtime_Startup_exec__E                                          
0800a5c1  ti_sysbios_heaps_HeapMem_alloc__E                                    
0800a621  xdc_runtime_Assert_raise__I                                          
0800a681  xdc_runtime_Text_putLab__E                                           
0800a79d  HOSTopen                                                             
0800a7f9  HOSTread                                                             
0800a861  ti_sysbios_knl_Swi_schedule__I                                       
0800a917  UartSci_closeDMA                                                     
0800a971  close                                                                
0800a9c9  HOSTwrite                                                            
0800aa21  CRC_getTransactionId                                                 
0800aa75  DMA_freeChannel                                                      
0800aac9  QSPIFlash_writeEnable                                                
0800ab1d  SBL_transportConfig                                                  
0800ab71  ltoa                                                                 
0800abc5  ti_sysbios_family_arm_v7r_vim_Hwi_create                             
0800ac21  ti_sysbios_heaps_HeapMem_getStats__E                                 
0800ac81  ti_sysbios_knl_Task_startCore__E                                     
0800ace1  xdc_runtime_Core_assignLabel__I                                      
0800ad35  CRC_getSignature                                                     
0800ad85  atoi                                                                 
0800add5  C$$EXIT                                                              
0800add9  abort                                                                
0800add9  xdc_runtime_System_abortStd__E                                       
0800ade1  exit                                                                 
0800ade1  xdc_runtime_System_exitStd__E                                        
0800ae24  __aeabi_uidiv                                                        
0800ae24  __aeabi_uidivmod                                                     
0800ae81  ti_sysbios_timers_rti_Timer_setPeriodMicroSecs__E                    
0800aed1  xdc_runtime_System_exit__E                                           
0800b005  copy_in                                                              
0800b051  ti_sysbios_family_arm_v7r_vim_Hwi_getStackInfo__E                    
0800b051  ti_sysbios_hal_Hwi_HwiProxy_getStackInfo__E                          
0800b051  ti_sysbios_hal_Hwi_getStackInfo__E                                   
0800b09d  ti_sysbios_knl_Task_create                                           
0800b0f1  xdc_runtime_Core_assignParams__I                                     
0800b141  xdc_runtime_Text_xprintf__I                                          
0800b1d1  SOC_resetDMA                                                         
0800b215  HOSTclose                                                            
0800b259  HOSTunlink                                                           
0800b2a1  ti_sysbios_family_arm_v7r_tms570_Core_Module_startup__E              
0800b2f1  ti_sysbios_knl_Task_allBlockedFunction__I                            
0800b341  xdc_runtime_System_atexit__E                                         
0800b385  QSPIFlash_progQuadRead                                               
0800b411  ti_sysbios_family_arm_v7r_vim_Hwi_setType__E                         
0800b451  ti_sysbios_knl_Swi_post__E                                           
0800b491  ti_sysbios_timers_rti_Timer_stop__E                                  
0800b701  QSPIFlash_close                                                      
0800b73d  SBL_printf                                                           
0800b779  SBL_resetBuffers                                                     
0800b7b5  SOC_unhaltBSS                                                        
0800b7f0  ti_sysbios_family_arm_v7r_vim_Hwi_init__I                            
0800b831  ti_sysbios_hal_Hwi_checkStack                                        
0800b871  ti_sysbios_heaps_HeapMem_init__I                                     
0800b8b1  ti_sysbios_knl_Swi_startup__E                                        
0800b8f1  ti_sysbios_timers_rti_Timer_setPeriod__E                             
0800b92d  HwiP_delete                                                          
0800b969  SOC_getMSSVCLKFrequency                                              
0800b9a1  SBL_transportInit                                                    
0800b9a1  UART_init                                                            
0800b9d9  strncpy                                                              
0800ba11  SBL_bufferMgmtTask                                                   
0800ba45  SOC_hasDSPCore                                                       
0800ba79  UART_open                                                            
0800baad  ti_sysbios_knl_Semaphore_create                                      
0800bae1  ti_sysbios_knl_Task_processVitalTaskFlag__I                          
0800bb81  ti_sysbios_hal_Hwi_initStack                                         
0800bbb5  QSPIFlash_getDeviceID                                                
0800bbe5  SOC_softReset                                                        
0800bc15  ti_sysbios_BIOS_atExitFunc__I                                        
0800bc45  ti_sysbios_BIOS_startFunc__I                                         
0800bc81  ti_sysbios_family_arm_TaskSupport_start__E                           
0800bc81  ti_sysbios_knl_Task_SupportProxy_start__E                            
0800bcb1  ti_sysbios_gates_GateHwi_Object__create__S                           
0800bce1  ti_sysbios_gates_GateMutex_Object__create__S                         
0800bd11  ti_sysbios_heaps_HeapMem_Object__create__S                           
0800bd41  ti_sysbios_heaps_HeapMem_free__E                                     
0800bd71  ti_sysbios_knl_Semaphore_construct                                   
0800bda1  xdc_runtime_Text_printVisFxn__I                                      
0800bdd1  malloc                                                               
0800be01  CRC_close                                                            
0800be2d  crc16_ccitt                                                          
0800be59  remove                                                               
0800be59  unlink                                                               
0800be85  ti_sysbios_knl_Clock_doTick__I                                       
0800beb1  ti_sysbios_knl_Queue_construct                                       
0800bee1  ti_sysbios_knl_Semaphore_pendTimeout__I                              
0800bf11  ti_sysbios_knl_Swi_Module_startup__E                                 
0800bf41  ti_sysbios_knl_Task_unblockI__E                                      
0800bf71  ti_sysbios_timers_rti_Timer_periodicStub__E                          
0800bf9d  SOC_SystemISR                                                        
0800bfc9  QSPIFlash_getExtFlashAddr                                            
0800bff1  SBL_imageAuthParamsInit                                              
0800c069  lseek                                                                
0800c091  write                                                                
0800c0c1  ti_sysbios_knl_Idle_run__E                                           
0800c0f1  ti_sysbios_knl_Task_restore__E                                       
0800c121  xdc_runtime_SysStd_abort__E                                          
0800c121  xdc_runtime_System_SupportProxy_abort__E                             
0800c151  xdc_runtime_System_aprintf_va__F                                     
0800c181  xdc_runtime_System_printf_va__F                                      
0800c1cd  SBL_imageDecryptParamsInit                                           
0800c1f1  ti_sysbios_BIOS_errorRaiseHook__I                                    
0800c215  ti_sysbios_BIOS_registerRTSLock__I                                   
0800c239  ti_sysbios_BIOS_removeRTSLock__I                                     
0800c25d  ti_sysbios_gates_GateMutex_Object__delete__S                         
0800c281  ti_sysbios_knl_Clock_Module_startup__E                               
0800c2a5  ti_sysbios_knl_Semaphore_Object__delete__S                           
0800c2d1  ti_sysbios_knl_Task_restoreHwi__E                                    
0800c2f5  QSPIFlashGetStatus                                                   
0800c317  UartSci_disableRxDMA                                                 
0800c339  UartSci_enableRxDMA                                                  
0800c37d  memchr                                                               
0800c39d  ti_sysbios_family_arm_v7r_vim_Hwi_Object__delete__S                  
0800c3c1  ti_sysbios_family_arm_v7r_vim_Hwi_disableInterrupt__E                
0800c3c1  ti_sysbios_hal_Hwi_HwiProxy_disableInterrupt__E                      
0800c3c1  ti_sysbios_hal_Hwi_disableInterrupt__E                               
0800c3e1  ti_sysbios_family_arm_v7r_vim_Hwi_enableInterrupt__E                 
0800c3e1  ti_sysbios_hal_Hwi_HwiProxy_enableInterrupt__E                       
0800c3e1  ti_sysbios_hal_Hwi_enableInterrupt__E                                
0800c401  ti_sysbios_gates_GateHwi_Object__delete__S                           
0800c421  ti_sysbios_heaps_HeapMem_Object__delete__S                           
0800c441  ti_sysbios_knl_Semaphore_destruct                                    
0800c508  ti_sysbios_family_arm_TaskSupport_glue                               
0800c524  ti_sysbios_family_arm_TaskSupport_swap__E                            
0800c524  ti_sysbios_knl_Task_SupportProxy_swap__E                             
0800c541  memccpy                                                              
0800c55d  ti_sysbios_BIOS_rtsLock__I                                           
0800c581  ti_sysbios_gates_GateMutex_Instance_init__E                          
0800c5a1  ti_sysbios_gates_GateMutex_leave__E                                  
0800c5bd  ti_sysbios_knl_Queue_destruct                                        
0800c5d9  free                                                                 
0800c5f3  copysign                                                             
0800c5f3  copysignl                                                            
0800c60d  ti_sysbios_gates_GateHwi_Handle__label__S                            
0800c60d  xdc_runtime_Main_Module_GateProxy_Handle__label__S                   
0800c60d  xdc_runtime_System_Module_GateProxy_Handle__label__S                 
0800c627  ti_sysbios_BIOS_RtsGateProxy_Handle__label__S                        
0800c627  ti_sysbios_gates_GateMutex_Handle__label__S                          
0800c627  ti_sysbios_heaps_HeapMem_Module_GateProxy_Handle__label__S           
0800c641  ti_sysbios_heaps_HeapMem_Handle__label__S                            
0800c641  xdc_runtime_Memory_HeapProxy_Handle__label__S                        
0800c65b  xdc_runtime_System_aprintf__E                                        
0800c675  xdc_runtime_System_printf__E                                         
0800c691  _args_main                                                           
0800c6a9  strcmp                                                               
0800c6c1  ti_sysbios_BIOS_rtsUnlock__I                                         
0800c6d9  ti_sysbios_family_arm_v7r_vim_Hwi_Module__startupDone__F             
0800c6d9  ti_sysbios_family_arm_v7r_vim_Hwi_Module__startupDone__S             
0800c6d9  ti_sysbios_hal_Hwi_HwiProxy_Module__startupDone__S                   
0800c6f1  ti_sysbios_family_arm_v7r_vim_Hwi_Params__init__S                    
0800c6f1  ti_sysbios_hal_Hwi_HwiProxy_Params__init__S                          
0800c711  ti_sysbios_family_arm_v7r_vim_Hwi_clearInterrupt__E                  
0800c711  ti_sysbios_hal_Hwi_HwiProxy_clearInterrupt__E                        
0800c711  ti_sysbios_hal_Hwi_clearInterrupt__E                                 
0800c729  ti_sysbios_knl_Semaphore_Params__init__S                             
0800c741  ti_sysbios_knl_Task_Params__init__S                                  
0800c761  ti_sysbios_knl_Task_enter__I                                         
0800c779  ti_sysbios_knl_Clock_TimerProxy_Module__startupDone__S               
0800c779  ti_sysbios_timers_rti_Timer_Module__startupDone__F                   
0800c779  ti_sysbios_timers_rti_Timer_Module__startupDone__S                   
0800c791  xdc_runtime_Error_init__E                                            
0800c7a9  strchr                                                               
0800c7bf  strlen                                                               
0800c7d5  ti_sysbios_BIOS_exitFunc__I                                          
0800c7f1  ti_sysbios_knl_Idle_loop__E                                          
0800c807  HwiP_Params_init                                                     
0800c845  UartSci_disableTxDMA                                                 
0800c859  UartSci_enableTxDMA                                                  
0800c86d  _DebugP_assert                                                       
0800c881  _register_unlock                                                     
0800c887  _register_lock                                                       
0800c88f  _nop                                                                 
0800c895  strcpy                                                               
0800c8a9  ti_sysbios_heaps_HeapMem_Object__get__S                              
0800c8bd  ti_sysbios_knl_Swi_Object__get__S                                    
0800c8d1  CRC_initConfigParams                                                 
0800c8e3  MemoryP_ctrlAlloc                                                    
0800c8f5  SemaphoreP_pend                                                      
0800c911  ti_sysbios_hal_Hwi_Module_startup__E                                 
0800c923  xdc_runtime_Startup_exec__I                                          
0800c945  DMA_Params_init                                                      
0800c955  QSPIFlashWriteCmd                                                    
0800c965  QSPI_Params_init                                                     
0800c975  SBL_transportRead                                                    
0800c991  ti_sysbios_BIOS_exit__E                                              
0800c9a1  ti_sysbios_BIOS_setThreadType__E                                     
0800c9b1  ti_sysbios_BIOS_start__E                                             
0800c9c1  ti_sysbios_gates_GateMutex_Instance_finalize__E                      
0800c9d1  ti_sysbios_heaps_HeapBuf_Object__get__S                              
0800c9e1  ti_sysbios_knl_Semaphore_Instance_finalize__E                        
0800c9f1  ti_sysbios_knl_Swi_disable__E                                        
0800ca01  ti_sysbios_knl_Task_Object__get__S                                   
0800ca11  ti_sysbios_knl_Task_disable__E                                       
0800ca21  xdc_runtime_Memory_free__E                                           
0800ca31  xdc_runtime_Text_visitRope__I                                        
0800ca41  SemaphoreP_delete                                                    
0800ca4f  __TI_decompress_none                                                 
0800ca61  ti_sysbios_knl_Queue_empty__E                                        
0800ca71  ti_sysbios_family_arm_TaskSupport_checkStack__E                      
0800ca71  ti_sysbios_knl_Task_SupportProxy_checkStack__E                       
0800ca81  ti_sysbios_family_arm_TaskSupport_getStackAlignment__E               
0800ca81  ti_sysbios_knl_Task_SupportProxy_getStackAlignment__E                
0800ca91  ti_sysbios_family_arm_exc_Exception_Module_startup__E                
0800caa1  ti_sysbios_family_arm_v7r_vim_Hwi_switchFromBootStack__E             
0800caa1  ti_sysbios_hal_Hwi_HwiProxy_switchFromBootStack__E                   
0800caa1  ti_sysbios_hal_Hwi_switchFromBootStack__E                            
0800cab1  xdc_runtime_Startup_rtsDone__E                                       
0800cac1  xdc_runtime_SysStd_exit__E                                           
0800cac1  xdc_runtime_System_SupportProxy_exit__E                              
0800cad1  ti_sysbios_gates_GateHwi_enter__E                                    
0800cae1  ti_sysbios_family_arm_v7r_vim_Hwi_startup__E                         
0800cae1  ti_sysbios_hal_Hwi_HwiProxy_startup__E                               
0800cae1  ti_sysbios_hal_Hwi_startup__E                                        
0800caf1  ti_sysbios_gates_GateHwi_leave__E                                    
0800cb01  ti_sysbios_heaps_HeapMem_isBlocking__E                               
0800cb11  ti_sysbios_knl_Queue_Instance_init__E                                
0800cb21  xdc_runtime_System_Module_startup__E                                 
0800cb31  ti_sysbios_gates_GateHwi_query__E                                    
0800cb31  xdc_runtime_Main_Module_GateProxy_query__E                           
0800cb31  xdc_runtime_System_Module_GateProxy_query__E                         
0800cb41  ti_sysbios_BIOS_RtsGateProxy_query__E                                
0800cb41  ti_sysbios_gates_GateMutex_query__E                                  
0800cb41  ti_sysbios_heaps_HeapMem_Module_GateProxy_query__E                   
0800cb51  ti_sysbios_knl_Task_startup__E                                       
0800cb61  ti_sysbios_timers_rti_Timer_getMaxTicks__E                           
0800cb71  xdc_runtime_SysStd_putch__E                                          
0800cb71  xdc_runtime_System_SupportProxy_putch__E                             
0800cb81  xdc_runtime_SysStd_ready__E                                          
0800cb81  xdc_runtime_System_SupportProxy_ready__E                             
0800cb91  ti_sysbios_BIOS_linkedWithIncorrectBootLibrary__E                    
0800cba1  ti_sysbios_gates_GateHwi_Instance_init__E                            
0800cbb1  ti_sysbios_knl_Clock_logTick__E                                      
0800cbb8  ti_sysbios_heaps_HeapMem_Instance_State_0_buf__A                     
08014bc0  gSblMCB                                                              
08016558  gDMADriverPtr                                                        
08016560  parmbuf                                                              
08016580  dataBuff                                                             
08017580  ti_sysbios_family_arm_exc_Exception_Module_State_0_excStack_0__A     
08018580  ti_sysbios_knl_Task_Instance_State_0_stack__A                        
08018d80  imageChunk                                                           
08019580  __CIOBUF_                                                            
080196a0  __TI_tmpnams                                                         
08019740  _constRunAddr                                                        
08019740  xdc_runtime_Text_charTab__A                                          
0801b42e  _ctypes_                                                             
0801b530  xdc_runtime_Text_nodeTab__A                                          
0801b600  ti_sysbios_family_arm_v7r_vim_Hwi_channelMap__A                      
0801b738  ti_sysbios_knl_Task_Object__PARAMS__C                                
0801b77c  UART_defaultParams                                                   
0801b7b8  ti_sysbios_family_arm_v7r_vim_Hwi_Object__PARAMS__C                  
0801b7e8  ti_sysbios_heaps_HeapMem_Module__FXNS__C                             
0801b810  xdc_runtime_Startup_sfxnTab__A                                       
0801b838  ti_sysbios_gates_GateHwi_Module__FXNS__C                             
0801b85c  ti_sysbios_gates_GateMutex_Module__FXNS__C                           
0801b880  ti_sysbios_heaps_HeapMem_Object__PARAMS__C                           
0801b8a4  ti_sysbios_knl_Semaphore_Object__PARAMS__C                           
0801b8c8  ti_sysbios_family_arm_v7r_vim_Hwi_Object__DESC__C                    
0801b8e8  ti_sysbios_gates_GateHwi_Object__DESC__C                             
0801b908  ti_sysbios_gates_GateMutex_Object__DESC__C                           
0801b928  ti_sysbios_heaps_HeapMem_Object__DESC__C                             
0801b948  ti_sysbios_knl_Queue_Object__DESC__C                                 
0801b968  ti_sysbios_knl_Semaphore_Object__DESC__C                             
0801b988  ti_sysbios_knl_Task_Object__DESC__C                                  
0801b9a8  ti_sysbios_gates_GateHwi_Object__PARAMS__C                           
0801b9c0  ti_sysbios_gates_GateMutex_Object__PARAMS__C                         
0801b9d8  ti_sysbios_knl_Queue_Object__PARAMS__C                               
0801b9f0  xdc_runtime_Startup_sfxnRts__A                                       
0801ba04  QSPI_defaultParams                                                   
0801ba14  ti_sysbios_family_arm_v7r_vim_Hwi_intReqEnaSet__A                    
0801ba24  ti_sysbios_family_arm_v7r_vim_Hwi_wakeEnaSet__A                      
0801ba34  ti_sysbios_knl_Idle_funcList__C                                      
0801ba3c  xdc_runtime_Startup_firstFxns__A                                     
0801ba44  xdc_runtime_Startup_firstFxns__C                                     
0801ba4c  xdc_runtime_Startup_lastFxns__C                                      
0801ba54  ti_sysbios_family_arm_TaskSupport_stackAlignment__C                  
0801ba58  ti_sysbios_family_arm_exc_Exception_E_dataAbort__C                   
0801ba5c  ti_sysbios_family_arm_exc_Exception_E_prefetchAbort__C               
0801ba60  ti_sysbios_family_arm_exc_Exception_E_swi__C                         
0801ba64  ti_sysbios_family_arm_exc_Exception_E_undefinedInstruction__C        
0801ba68  ti_sysbios_family_arm_exc_Exception_excHookFuncs__A                  
0801ba6c  ti_sysbios_family_arm_exc_Exception_excHookFuncs__C                  
0801ba70  ti_sysbios_family_arm_v7r_tms570_Core_E_mismatchedIds__C             
0801ba74  ti_sysbios_family_arm_v7r_tms570_Core_id__C                          
0801ba78  ti_sysbios_family_arm_v7r_vim_Hwi_A_badChannelId__C                  
0801ba7c  ti_sysbios_family_arm_v7r_vim_Hwi_E_alreadyDefined__C                
0801ba80  ti_sysbios_family_arm_v7r_vim_Hwi_E_badIntNum__C                     
0801ba84  ti_sysbios_family_arm_v7r_vim_Hwi_E_phantomInterrupt__C              
0801ba88  ti_sysbios_family_arm_v7r_vim_Hwi_E_undefined__C                     
0801ba8c  ti_sysbios_family_arm_v7r_vim_Hwi_E_unsupportedMaskingOption__C      
0801ba90  ti_sysbios_family_arm_v7r_vim_Hwi_Module__diagsEnabled__C            
0801ba94  ti_sysbios_family_arm_v7r_vim_Hwi_Module__diagsIncluded__C           
0801ba98  ti_sysbios_family_arm_v7r_vim_Hwi_Module__diagsMask__C               
0801ba9c  ti_sysbios_family_arm_v7r_vim_Hwi_NUM_INTERRUPTS__C                  
0801baa0  ti_sysbios_family_arm_v7r_vim_Hwi_channelMap__C                      
0801baa4  ti_sysbios_family_arm_v7r_vim_Hwi_intReqEnaSet__C                    
0801baa8  ti_sysbios_family_arm_v7r_vim_Hwi_phantomFunc__C                     
0801baac  ti_sysbios_family_arm_v7r_vim_Hwi_swiDisable__C                      
0801bab0  ti_sysbios_family_arm_v7r_vim_Hwi_swiRestoreHwi__C                   
0801bab4  ti_sysbios_family_arm_v7r_vim_Hwi_taskDisable__C                     
0801bab8  ti_sysbios_family_arm_v7r_vim_Hwi_taskRestoreHwi__C                  
0801babc  ti_sysbios_family_arm_v7r_vim_Hwi_wakeEnaSet__C                      
0801bac0  ti_sysbios_gates_GateMutex_A_badContext__C                           
0801bac4  ti_sysbios_gates_GateMutex_Instance_State_sem__O                     
0801bac8  ti_sysbios_gates_GateMutex_Module__diagsEnabled__C                   
0801bacc  ti_sysbios_gates_GateMutex_Module__diagsIncluded__C                  
0801bad0  ti_sysbios_gates_GateMutex_Module__diagsMask__C                      
0801bad4  ti_sysbios_hal_Hwi_E_stackOverflow__C                                
0801bad8  ti_sysbios_heaps_HeapBuf_Instance_State_freeList__O                  
0801badc  ti_sysbios_heaps_HeapBuf_Object__count__C                            
0801bae0  ti_sysbios_heaps_HeapBuf_numConstructedHeaps__C                      
0801bae4  ti_sysbios_heaps_HeapMem_A_align__C                                  
0801bae8  ti_sysbios_heaps_HeapMem_A_heapSize__C                               
0801baec  ti_sysbios_heaps_HeapMem_A_invalidFree__C                            
0801baf0  ti_sysbios_heaps_HeapMem_A_zeroBlock__C                              
0801baf4  ti_sysbios_heaps_HeapMem_E_memory__C                                 
0801baf8  ti_sysbios_heaps_HeapMem_Module__diagsEnabled__C                     
0801bafc  ti_sysbios_heaps_HeapMem_Module__diagsIncluded__C                    
0801bb00  ti_sysbios_heaps_HeapMem_Module__diagsMask__C                        
0801bb04  ti_sysbios_heaps_HeapMem_Module__gateObj__C                          
0801bb08  ti_sysbios_heaps_HeapMem_Object__count__C                            
0801bb0c  ti_sysbios_heaps_HeapMem_reqAlign__C                                 
0801bb10  ti_sysbios_knl_Clock_Module_State_clockQ__O                          
0801bb14  ti_sysbios_knl_Idle_funcList__A                                      
0801bb18  ti_sysbios_knl_Semaphore_A_badContext__C                             
0801bb1c  ti_sysbios_knl_Semaphore_A_noEvents__C                               
0801bb20  ti_sysbios_knl_Semaphore_A_overflow__C                               
0801bb24  ti_sysbios_knl_Semaphore_A_pendTaskDisabled__C                       
0801bb28  ti_sysbios_knl_Semaphore_Instance_State_pendQ__O                     
0801bb2c  ti_sysbios_knl_Semaphore_Module__diagsEnabled__C                     
0801bb30  ti_sysbios_knl_Semaphore_Module__diagsIncluded__C                    
0801bb34  ti_sysbios_knl_Semaphore_Module__diagsMask__C                        
0801bb38  ti_sysbios_knl_Swi_Object__count__C                                  
0801bb3c  ti_sysbios_knl_Task_A_badPriority__C                                 
0801bb40  ti_sysbios_knl_Task_A_badTaskState__C                                
0801bb44  ti_sysbios_knl_Task_A_badThreadType__C                               
0801bb48  ti_sysbios_knl_Task_A_noPendElem__C                                  
0801bb4c  ti_sysbios_knl_Task_E_spOutOfBounds__C                               
0801bb50  ti_sysbios_knl_Task_E_stackOverflow__C                               
0801bb54  ti_sysbios_knl_Task_Module_State_inactiveQ__O                        
0801bb58  ti_sysbios_knl_Task_Module__diagsEnabled__C                          
0801bb5c  ti_sysbios_knl_Task_Module__diagsIncluded__C                         
0801bb60  ti_sysbios_knl_Task_Module__diagsMask__C                             
0801bb64  ti_sysbios_knl_Task_Object__count__C                                 
0801bb68  ti_sysbios_knl_Task_allBlockedFunc__C                                
0801bb6c  ti_sysbios_knl_Task_defaultStackHeap__C                              
0801bb70  ti_sysbios_knl_Task_defaultStackSize__C                              
0801bb74  ti_sysbios_knl_Task_numConstructedTasks__C                           
0801bb78  ti_sysbios_timers_rti_Timer_E_cannotSupport__C                       
0801bb7c  ti_sysbios_timers_rti_Timer_Module__diagsEnabled__C                  
0801bb80  ti_sysbios_timers_rti_Timer_Module__diagsIncluded__C                 
0801bb84  ti_sysbios_timers_rti_Timer_Module__diagsMask__C                     
0801bb88  ti_sysbios_timers_rti_Timer_numTimerDevices__C                       
0801bb8c  ti_sysbios_timers_rti_Timer_startupNeeded__C                         
0801bb90  xdc_runtime_Assert_E_assertFailed__C                                 
0801bb94  xdc_runtime_Core_A_initializedParams__C                              
0801bb98  xdc_runtime_Core_Module__diagsEnabled__C                             
0801bb9c  xdc_runtime_Core_Module__diagsIncluded__C                            
0801bba0  xdc_runtime_Core_Module__diagsMask__C                                
0801bba4  xdc_runtime_Error_E_memory__C                                        
0801bba8  xdc_runtime_Error_policyFxn__C                                       
0801bbac  xdc_runtime_Error_policy__C                                          
0801bbb0  xdc_runtime_Error_raiseHook__C                                       
0801bbb4  xdc_runtime_IGateProvider_Interface__BASE__C                         
0801bbb8  xdc_runtime_IHeap_Interface__BASE__C                                 
0801bbbc  xdc_runtime_IModule_Interface__BASE__C                               
0801bbc0  xdc_runtime_Memory_defaultHeapInstance__C                            
0801bbc4  xdc_runtime_Startup_execImpl__C                                      
0801bbc8  xdc_runtime_Startup_maxPasses__C                                     
0801bbcc  xdc_runtime_Startup_sfxnRts__C                                       
0801bbd0  xdc_runtime_Startup_sfxnTab__C                                       
0801bbd4  xdc_runtime_System_Module__gateObj__C                                
0801bbd8  xdc_runtime_System_abortFxn__C                                       
0801bbdc  xdc_runtime_System_exitFxn__C                                        
0801bbe0  xdc_runtime_System_extendFxn__C                                      
0801bbe4  xdc_runtime_System_maxAtexitHandlers__C                              
0801bbe8  xdc_runtime_Text_charTab__C                                          
0801bbec  xdc_runtime_Text_nameEmpty__C                                        
0801bbf0  xdc_runtime_Text_nameStatic__C                                       
0801bbf4  xdc_runtime_Text_nameUnknown__C                                      
0801bbf8  xdc_runtime_Text_nodeTab__C                                          
0801bbfc  xdc_runtime_Text_visitRopeFxn__C                                     
0801bc00  ti_sysbios_family_arm_exc_Exception_Module__id__C                    
0801bc02  ti_sysbios_family_arm_v7r_tms570_Core_Module__id__C                  
0801bc04  ti_sysbios_family_arm_v7r_vim_Hwi_Module__id__C                      
0801bc06  ti_sysbios_gates_GateMutex_Module__id__C                             
0801bc08  ti_sysbios_hal_Hwi_Module__id__C                                     
0801bc0a  ti_sysbios_heaps_HeapMem_Module__id__C                               
0801bc0c  ti_sysbios_knl_Semaphore_Module__id__C                               
0801bc0e  ti_sysbios_knl_Task_Module__id__C                                    
0801bc10  ti_sysbios_timers_rti_Timer_Module__id__C                            
0801bc12  ti_sysbios_timers_rti_Timer_continueOnSuspend__C                     
0801bc14  xdc_runtime_Core_Module__id__C                                       
0801bc16  xdc_runtime_Error_maxDepth__C                                        
0801bc18  xdc_runtime_Main_Module__id__C                                       
0801bc1a  xdc_runtime_Memory_Module__id__C                                     
0801bc1c  xdc_runtime_Text_charCnt__C                                          
0801bc1e  xdc_runtime_Text_isLoaded__C                                         
0801bc20  xdc_runtime_Text_registryModsLastId__C                               
0801bc22  xdc_runtime_Text_unnamedModsLastId__C                                
0801bc40  __stack                                                              
0801cc40  __STACK_END                                                          
0801cc40  ti_sysbios_family_arm_v7r_vim_Hwi_Module_State_0_dispatchTable__A    
0801ce40  _ftable                                                              
0801cf30  DMA_defaultParams                                                    
0801cf40  metaHeaderLcl                                                        
0801d000  ti_sysbios_knl_Swi_Module_State_0_readyQ__A                          
0801d080  ti_sysbios_knl_Task_Module_State_0_readyQ__A                         
0801d100  _device                                                              
0801d178  gDMAHwCfg                                                            
0801d1d8  ti_sysbios_knl_Task_Object__table__V                                 
0801d234  gUartSciHwCfg                                                        
0801d28c  _stream                                                              
0801d2dc  ti_sysbios_knl_Task_Module__state__V                                 
0801d324  ti_sysbios_gates_GateMutex_Object__table__V                          
0801d364  ti_sysbios_timers_rti_Timer_Object__table__V                         
0801d3a0  ti_sysbios_family_arm_v7r_vim_Hwi_Module__state__V                   
0801d3d4  ti_sysbios_knl_Swi_Object__table__V                                  
0801d404  ti_sysbios_family_arm_v7r_vim_Hwi_Object__table__V                   
0801d430  ti_sysbios_knl_Clock_Module__state__V                                
0801d45c  gUartSciFxnTable                                                     
0801d484  UART_config                                                          
0801d4a8  ti_sysbios_BIOS_Module__state__V                                     
0801d4cc  gQSPIFlashHwCfg                                                      
0801d4d0  gSOCHwAttrib                                                         
0801d4f0  xdc_runtime_Error_IgnoreBlock                                        
0801d510  xdc_runtime_System_Module_State_0_atexitHandlers__A                  
0801d530  ti_sysbios_knl_Swi_Module__state__V                                  
0801d54c  ti_sysbios_heaps_HeapMem_Object__table__V                            
0801d564  ti_sysbios_timers_rti_Timer_Module_State_0_device__A                 
0801d57c  ti_sysbios_family_arm_exc_Exception_Module__state__V                 
0801d590  gQSPIHwCfg                                                           
0801d5a0  __TI_ft_end                                                          
0801d5a4  __aeabi_stdin                                                        
0801d5a8  __aeabi_stdout                                                       
0801d5ac  __aeabi_stderr                                                       
0801d5b0  ti_sysbios_timers_rti_Timer_Module_State_0_intFreqs__A               
0801d5c0  ti_sysbios_timers_rti_Timer_Module__state__V                         
0801d5d0  __TI_cleanup_ptr                                                     
0801d5d4  __TI_dtors_ptr                                                       
0801d5d8  __TI_enable_exit_profile_output                                      
0801d5dc  _lock                                                                
0801d5e0  _unlock                                                              
0801d5e4  QSPIFlash_deviceFxnTbl_macronix                                      
0801d5ec  QSPIFlash_deviceFxnTbl_spansion                                      
0801d5f4  ti_sysbios_family_arm_v7r_vim_Hwi_Module__root__V                    
0801d5fc  ti_sysbios_gates_GateHwi_Module__root__V                             
0801d604  ti_sysbios_gates_GateMutex_Module__root__V                           
0801d60c  ti_sysbios_hal_Hwi_Object__table__V                                  
0801d614  ti_sysbios_heaps_HeapMem_Module__root__V                             
0801d61c  ti_sysbios_knl_Queue_Module__root__V                                 
0801d624  ti_sysbios_knl_Semaphore_Module__root__V                             
0801d62c  ti_sysbios_knl_Task_Module__root__V                                  
0801d634  ti_sysbios_timers_rti_Timer_Module_State_0_handles__A                
0801d63c  xdc_runtime_Registry_Module__state__V                                
0801d644  xdc_runtime_Startup_Module__state__V                                 
0801d64c  xdc_runtime_System_Module__state__V                                  
0801d654  gCRCRegister                                                         
0801d658  gPinmuxRegs                                                          
0801d65c  gQSPIDriverPtr                                                       
0801d664  errno                                                                
0801d670  main_func_sp                                                         
0801d674  ti_sysbios_family_arm_exc_Exception_Module_State_0_excContext__A     
0801d678  ti_sysbios_family_arm_exc_Exception_Module_State_0_excStackBuffers__A
0801d67c  ti_sysbios_family_arm_exc_Exception_Module_State_0_excStack__A       
0801d680  ti_sysbios_gates_GateHwi_Object__table__V                            
0801d684  ti_sysbios_heaps_HeapBuf_Module__state__V                            
0801d688  ti_sysbios_knl_Task_Module_State_0_idleTask__A                       
0801d68c  xdc_runtime_Memory_Module__state__V                                  
0801d690  ti_sysbios_family_arm_exc_Exception_Module_State_0_excActive__A      
0801d692  xdc_runtime_Error_Module__state__V                                   
0801d698  ti_sysbios_family_arm_v7r_vim_Hwi_Module_State_0_fiqStack__A         
fffffdec  ti_sysbios_family_arm_v7r_vim_Hwi_vim                                
ffffffff  __TI_pprof_out_hndl                                                  
ffffffff  __TI_prof_data_size                                                  
ffffffff  __TI_prof_data_start                                                 
ffffffff  __binit__                                                            
ffffffff  __c_args__                                                           
ffffffff  binit                                                                
UNDEFED   SHT$$INIT_ARRAY$$Base                                                
UNDEFED   SHT$$INIT_ARRAY$$Limit                                               

[707 symbols]
